


ARM Macro Assembler    Page 1 


    1 00000000         ;/****************************************Copyright (c)*
                       **************************************************
    2 00000000         ;**                         Guangzhou ZHIYUAN electronic
                       s Co.,LTD.                               
    3 00000000         ;**                                     
    4 00000000         ;**                               http://www.embedtools.
                       com
    5 00000000         ;**
    6 00000000         ;**--------------File Info------------------------------
                       -------------------------------------------------
    7 00000000         ;** File name:    vicControl.s
    8 00000000         ;** Last modified Date: 2008-12-12
    9 00000000         ;** Last Version:   1.0
   10 00000000         ;** Descriptions:   Provide VIC_Control
   11 00000000         ;**-----------------------------------------------------
                       -------------------------------------------------
   12 00000000         ;** Created by:   LinEnqiang
   13 00000000         ;** Created date:    2008-12-12
   14 00000000         ;** Version:   1.0
   15 00000000         ;** Descriptions:   The original version
   16 00000000         ;**
   17 00000000         ;**-----------------------------------------------------
                       -------------------------------------------------
   18 00000000         ;** Modified by:   
   19 00000000         ;** Modified date:  
   20 00000000         ;** Version:   
   21 00000000         ;** Descriptions:       
   22 00000000         ;*******************************************************
                       *************************************************/
   23 00000000                 INCLUDE          LPC3200.INC ; Include the head 
                                                            file 引入头文件
    1 00000000         ;/****************************************Copyright (c**
                       *************************************************
    2 00000000         ;**                         Guangzhou ZHIYUAN electronic
                       s Co.,LTD.                               
    3 00000000         ;**                                     
    4 00000000         ;**                               http://www.embedtools.
                       com
    5 00000000         ;**
    6 00000000         ;**--------------File Info------------------------------
                       --------------------------------------------------
    7 00000000         ;** File name:       LPC2400.inc
    8 00000000         ;** Last modified Date: 2008-04-29 
    9 00000000         ;** Last Version:   
   10 00000000         ;** Descriptions:   
   11 00000000         ;**-----------------------------------------------------
                       --------------------------------------------------
   12 00000000         ;** Created by:   LinEnqiang
   13 00000000         ;** Created date:    2008-12-15
   14 00000000         ;** Version:   1.0
   15 00000000         ;** Descriptions:   The original version
   16 00000000         ;**
   17 00000000         ;**-----------------------------------------------------
                       --------------------------------------------------
   18 00000000         ;** Modified by:   
   19 00000000         ;** Modified date:  
   20 00000000         ;** Version:   
   21 00000000         ;** Descriptions:
   22 00000000         ;*******************************************************



ARM Macro Assembler    Page 2 


                       *************************************************/
   23 00000000         
   24 00000000 40004000 
                       SYSCTRL_BASE_ADDR
                               EQU              0x40004000
   25 00000000 40004014 
                       BOOT_MAP
                               EQU              (CLK_PM_BASE_ADDR + 0x14)
   26 00000000         
   27 00000000 40004000 
                       CLK_PM_BASE_ADDR
                               EQU              0x40004000
   28 00000000         
   29 00000000 40004044 
                       PWR_CTRL
                               EQU              (CLK_PM_BASE_ADDR + 0x44)
   30 00000000 4000404C 
                       OSC_CTRL
                               EQU              (CLK_PM_BASE_ADDR + 0x4C)
   31 00000000 40004050 
                       SYSCLK_CTRL
                               EQU              (CLK_PM_BASE_ADDR + 0x50)
   32 00000000 40004048 
                       PLL397_CTRL
                               EQU              (CLK_PM_BASE_ADDR + 0x48)
   33 00000000 40004058 
                       HCLKPLL_CTRL
                               EQU              (CLK_PM_BASE_ADDR + 0x58)
   34 00000000 40004040 
                       HCLKDIV_CTRL
                               EQU              (CLK_PM_BASE_ADDR + 0x40)
   35 00000000 400040A4 
                       TEST_CLK
                               EQU              (CLK_PM_BASE_ADDR + 0xA4)
   36 00000000 400040EC 
                       AUTOCLK_CTRL
                               EQU              (CLK_PM_BASE_ADDR + 0xEC)
   37 00000000         
   38 00000000 40004020 
                       START_ER_INT
                               EQU              (CLK_PM_BASE_ADDR + 0x20)
   39 00000000 40004030 
                       START_ER_PIN
                               EQU              (CLK_PM_BASE_ADDR + 0x30)
   40 00000000 40004024 
                       START_RSR_INT
                               EQU              (CLK_PM_BASE_ADDR + 0x24)
   41 00000000 40004034 
                       START_RSR_PIN
                               EQU              (CLK_PM_BASE_ADDR + 0x34)
   42 00000000 40004028 
                       START_SR_INT
                               EQU              (CLK_PM_BASE_ADDR + 0x28)
   43 00000000 40004038 
                       START_SR_PIN
                               EQU              (CLK_PM_BASE_ADDR + 0x38)
   44 00000000 4000402C 
                       START_APR_INT
                               EQU              (CLK_PM_BASE_ADDR + 0x2C)



ARM Macro Assembler    Page 3 


   45 00000000 4000403C 
                       START_APR_PIN
                               EQU              (CLK_PM_BASE_ADDR + 0x3C)
   46 00000000         
   47 00000000 400040E8 
                       DMACLK_CTRL
                               EQU              (CLK_PM_BASE_ADDR + 0xE8)
   48 00000000 4000401C 
                       USBDIV_CTRL
                               EQU              (CLK_PM_BASE_ADDR + 0x1C)
   49 00000000 40004064 
                       USBCLK_CTRL
                               EQU              (CLK_PM_BASE_ADDR + 0x64)
   50 00000000 40004080 
                       MS_CTRL EQU              (CLK_PM_BASE_ADDR + 0x80)
   51 00000000 400040BC 
                       TIMCLK_CTRL
                               EQU              (CLK_PM_BASE_ADDR + 0xBC)
   52 00000000 400040C4 
                       SPI_CTRL
                               EQU              (CLK_PM_BASE_ADDR + 0xC4)
   53 00000000 400040C8 
                       FLASHCLK_CTRL
                               EQU              (CLK_PM_BASE_ADDR + 0xC8)
   54 00000000 40004090 
                       MACCLK_CTRL
                               EQU              (CLK_PM_BASE_ADDR + 0x90)
   55 00000000 40004054 
                       LCDCLK_CTRL
                               EQU              (CLK_PM_BASE_ADDR + 0x54)
   56 00000000 4000407C 
                       I2S_CTRL
                               EQU              (CLK_PM_BASE_ADDR + 0x7c)
   57 00000000 40004078 
                       SSP_CTRL
                               EQU              (CLK_PM_BASE_ADDR + 0x78)
   58 00000000         ;SPI_CTRL                  EQU     (CLK_PM_BASE_ADDR + 0
                       xC4)
   59 00000000 400040AC 
                       I2CCLK_CTRL
                               EQU              (CLK_PM_BASE_ADDR + 0xAC)
   60 00000000 400040C0 
                       TIMCLK_CTRL1
                               EQU              (CLK_PM_BASE_ADDR + 0xC0)
   61 00000000 400040B4 
                       ADCLK_CTRL
                               EQU              (CLK_PM_BASE_ADDR + 0xB4)
   62 00000000 40004060 
                       ADCLK_CTRL1
                               EQU              (CLK_PM_BASE_ADDR + 0x60)
   63 00000000 400040B0 
                       KEYCLK_CTRL
                               EQU              (CLK_PM_BASE_ADDR + 0xB0)
   64 00000000 400040B8 
                       PWMCLK_CTRL
                               EQU              (CLK_PM_BASE_ADDR + 0xB8)
   65 00000000 400040E4 
                       UARTCLK_CTRL
                               EQU              (CLK_PM_BASE_ADDR + 0xE4)



ARM Macro Assembler    Page 4 


   66 00000000         
   67 00000000 40008000 
                       MIC_BASE_ADDR
                               EQU              0x40008000
   68 00000000 40008000 
                       MIC_ER  EQU              (MIC_BASE_ADDR + 0x00)
   69 00000000 40008004 
                       MIC_RSR EQU              (MIC_BASE_ADDR + 0x04)
   70 00000000 40008008 
                       MIC_SR  EQU              (MIC_BASE_ADDR + 0x08)
   71 00000000 4000800C 
                       MIC_APR EQU              (MIC_BASE_ADDR + 0x0C)
   72 00000000 40008010 
                       MIC_ATR EQU              (MIC_BASE_ADDR + 0x10)
   73 00000000 40008014 
                       MIC_ITR EQU              (MIC_BASE_ADDR + 0x14)
   74 00000000         
   75 00000000 4000C000 
                       SIC1_BASE_ADDR
                               EQU              0x4000C000
   76 00000000 4000C000 
                       SIC1_ER EQU              (SIC1_BASE_ADDR + 0x00)
   77 00000000 4000C004 
                       SIC1_RSR
                               EQU              (SIC1_BASE_ADDR + 0x04)
   78 00000000 4000C008 
                       SIC1_SR EQU              (SIC1_BASE_ADDR + 0x08)
   79 00000000 4000C00C 
                       SIC1_APR
                               EQU              (SIC1_BASE_ADDR + 0x0C)
   80 00000000 4000C010 
                       SIC1_ATR
                               EQU              (SIC1_BASE_ADDR + 0x10)
   81 00000000 4000C014 
                       SIC1_ITR
                               EQU              (SIC1_BASE_ADDR + 0x14)
   82 00000000         
   83 00000000 40010000 
                       SIC2_BASE_ADDR
                               EQU              0x40010000
   84 00000000 40010000 
                       SIC2_ER EQU              (SIC2_BASE_ADDR + 0x00)
   85 00000000 40010004 
                       SIC2_RSR
                               EQU              (SIC2_BASE_ADDR + 0x04)
   86 00000000 40010008 
                       SIC2_SR EQU              (SIC2_BASE_ADDR + 0x08)
   87 00000000 4001000C 
                       SIC2_APR
                               EQU              (SIC2_BASE_ADDR + 0x0C)
   88 00000000 40010010 
                       SIC2_ATR
                               EQU              (SIC2_BASE_ADDR + 0x10)
   89 00000000 40010014 
                       SIC2_ITR
                               EQU              (SIC2_BASE_ADDR + 0x14)
   90 00000000         
   91 00000000 40004000 
                       SWI_BASE_ADDR



ARM Macro Assembler    Page 5 


                               EQU              0x40004000
   92 00000000 400040A8 
                       SW_INT  EQU              (SWI_BASE_ADDR + 0xA8)
   93 00000000         
   94 00000000 31000000 
                       DMA_GENERAL_BASE_ADDR
                               EQU              0x31000000
   95 00000000 31000000 
                       DMACIntStat
                               EQU              (DMA_GENERAL_BASE_ADDR + 0x00)
   96 00000000 31000004 
                       DMACIntTCStat
                               EQU              (DMA_GENERAL_BASE_ADDR + 0x04)
   97 00000000 31000008 
                       DMACIntTCClear
                               EQU              (DMA_GENERAL_BASE_ADDR + 0x08)
   98 00000000 3100000C 
                       DMACIntErrStat
                               EQU              (DMA_GENERAL_BASE_ADDR + 0x0C)
   99 00000000 31000010 
                       DMACIntErrClr
                               EQU              (DMA_GENERAL_BASE_ADDR + 0x10)
  100 00000000 31000014 
                       DMACRawIntTCStat
                               EQU              (DMA_GENERAL_BASE_ADDR + 0x14)
  101 00000000 31000018 
                       DMACRawIntErrStat
                               EQU              (DMA_GENERAL_BASE_ADDR + 0x18)
  102 00000000 3100001C 
                       DMACEnbldChns
                               EQU              (DMA_GENERAL_BASE_ADDR + 0x1C)
  103 00000000 31000020 
                       DMACSoftBReq
                               EQU              (DMA_GENERAL_BASE_ADDR + 0x20)
  104 00000000 31000024 
                       DMACSoftSReq
                               EQU              (DMA_GENERAL_BASE_ADDR + 0x24)
  105 00000000 31000028 
                       DMACSoftLBReq
                               EQU              (DMA_GENERAL_BASE_ADDR + 0x28)
  106 00000000 3100002C 
                       DMACSoftLSReq
                               EQU              (DMA_GENERAL_BASE_ADDR + 0x2C)
  107 00000000 31000030 
                       DMACConfig
                               EQU              (DMA_GENERAL_BASE_ADDR + 0x30)
  108 00000000         
  109 00000000 31000100 
                       DMA_CHAN0_BASE_ADDR
                               EQU              0x31000100
  110 00000000 31000100 
                       DMACC0SrcAddr
                               EQU              (DMA_CHAN0_BASE_ADDR + 0x00)
  111 00000000 31000104 
                       DMACC0DestAddr
                               EQU              (DMA_CHAN0_BASE_ADDR + 0x04)
  112 00000000 31000108 
                       DMACC0LLI
                               EQU              (DMA_CHAN0_BASE_ADDR + 0x08)



ARM Macro Assembler    Page 6 


  113 00000000 3100010C 
                       DMACC0Control
                               EQU              (DMA_CHAN0_BASE_ADDR + 0x0C)
  114 00000000 31000110 
                       DMACC0Config
                               EQU              (DMA_CHAN0_BASE_ADDR + 0x10)
  115 00000000         
  116 00000000 31000120 
                       DMA_CHAN1_BASE_ADDR
                               EQU              0x31000120
  117 00000000 31000120 
                       DMACC1SrcAddr
                               EQU              (DMA_CHAN1_BASE_ADDR + 0x00)
  118 00000000 31000124 
                       DMACC1DestAddr
                               EQU              (DMA_CHAN1_BASE_ADDR + 0x04)
  119 00000000 31000128 
                       DMACC1LLI
                               EQU              (DMA_CHAN1_BASE_ADDR + 0x08)
  120 00000000 3100012C 
                       DMACC1Control
                               EQU              (DMA_CHAN1_BASE_ADDR + 0x0C)
  121 00000000 31000130 
                       DMACC1Config
                               EQU              (DMA_CHAN1_BASE_ADDR + 0x10)
  122 00000000         
  123 00000000 31000140 
                       DMA_CHAN2_BASE_ADDR
                               EQU              0x31000140
  124 00000000 31000140 
                       DMACC2SrcAddr
                               EQU              (DMA_CHAN2_BASE_ADDR + 0x00)
  125 00000000 31000144 
                       DMACC2DestAddr
                               EQU              (DMA_CHAN2_BASE_ADDR + 0x04)
  126 00000000 31000148 
                       DMACC2LLI
                               EQU              (DMA_CHAN2_BASE_ADDR + 0x08)
  127 00000000 3100014C 
                       DMACC2Control
                               EQU              (DMA_CHAN2_BASE_ADDR + 0x0C)
  128 00000000 31000150 
                       DMACC2Config
                               EQU              (DMA_CHAN2_BASE_ADDR + 0x10)
  129 00000000         
  130 00000000 31000160 
                       DMA_CHAN3_BASE_ADDR
                               EQU              0x31000160
  131 00000000 31000160 
                       DMACC3SrcAddr
                               EQU              (DMA_CHAN3_BASE_ADDR + 0x00)
  132 00000000 31000164 
                       DMACC3DestAddr
                               EQU              (DMA_CHAN3_BASE_ADDR + 0x04)
  133 00000000 31000168 
                       DMACC3LLI
                               EQU              (DMA_CHAN3_BASE_ADDR + 0x08)
  134 00000000 3100016C 
                       DMACC3Control



ARM Macro Assembler    Page 7 


                               EQU              (DMA_CHAN3_BASE_ADDR + 0x0C)
  135 00000000 31000170 
                       DMACC3Config
                               EQU              (DMA_CHAN3_BASE_ADDR + 0x10)
  136 00000000         
  137 00000000 31000180 
                       DMA_CHAN4_BASE_ADDR
                               EQU              0x31000180
  138 00000000 31000180 
                       DMACC4SrcAddr
                               EQU              (DMA_CHAN4_BASE_ADDR + 0x00)
  139 00000000 31000184 
                       DMACC4DestAddr
                               EQU              (DMA_CHAN4_BASE_ADDR + 0x04)
  140 00000000 31000188 
                       DMACC4LLI
                               EQU              (DMA_CHAN4_BASE_ADDR + 0x08)
  141 00000000 3100018C 
                       DMACC4Control
                               EQU              (DMA_CHAN4_BASE_ADDR + 0x0C)
  142 00000000 31000190 
                       DMACC4Config
                               EQU              (DMA_CHAN4_BASE_ADDR + 0x10)
  143 00000000         
  144 00000000 310001A0 
                       DMA_CHAN5_BASE_ADDR
                               EQU              0x310001A0
  145 00000000 310001A0 
                       DMACC5SrcAddr
                               EQU              (DMA_CHAN5_BASE_ADDR + 0x00)
  146 00000000 310001A4 
                       DMACC5DestAddr
                               EQU              (DMA_CHAN5_BASE_ADDR + 0x04)
  147 00000000 310001A8 
                       DMACC5LLI
                               EQU              (DMA_CHAN5_BASE_ADDR + 0x08)
  148 00000000 310001AC 
                       DMACC5Control
                               EQU              (DMA_CHAN5_BASE_ADDR + 0x0C)
  149 00000000 310001B0 
                       DMACC5Config
                               EQU              (DMA_CHAN5_BASE_ADDR + 0x10)
  150 00000000         
  151 00000000 310001C0 
                       DMA_CHAN6_BASE_ADDR
                               EQU              0x310001C0
  152 00000000 310001C0 
                       DMACC6SrcAddr
                               EQU              (DMA_CHAN6_BASE_ADDR + 0x00)
  153 00000000 310001C4 
                       DMACC6DestAddr
                               EQU              (DMA_CHAN6_BASE_ADDR + 0x04)
  154 00000000 310001C8 
                       DMACC6LLI
                               EQU              (DMA_CHAN6_BASE_ADDR + 0x08)
  155 00000000 310001CC 
                       DMACC6Control
                               EQU              (DMA_CHAN6_BASE_ADDR + 0x0C)
  156 00000000 310001D0 



ARM Macro Assembler    Page 8 


                       DMACC6Config
                               EQU              (DMA_CHAN6_BASE_ADDR + 0x10)
  157 00000000         
  158 00000000 310001E0 
                       DMA_CHAN7_BASE_ADDR
                               EQU              0x310001E0
  159 00000000 310001E0 
                       DMACC7SrcAddr
                               EQU              (DMA_CHAN7_BASE_ADDR + 0x00)
  160 00000000 310001E4 
                       DMACC7DestAddr
                               EQU              (DMA_CHAN7_BASE_ADDR + 0x04)
  161 00000000 310001E8 
                       DMACC7LLI
                               EQU              (DMA_CHAN7_BASE_ADDR + 0x08)
  162 00000000 310001EC 
                       DMACC7Control
                               EQU              (DMA_CHAN7_BASE_ADDR + 0x0C)
  163 00000000 310001F0 
                       DMACC7Config
                               EQU              (DMA_CHAN7_BASE_ADDR + 0x10)
  164 00000000         
  165 00000000 40004000 
                       SDRAM_CLK_BASE_ADDR
                               EQU              0x40004000
  166 00000000 40004068 
                       SDRAMCLK_CTRL
                               EQU              (SDRAM_CLK_BASE_ADDR + 0x68)
  167 00000000         
  168 00000000 31080000 
                       SDRAM_BASE_ADDR
                               EQU              0x31080000
  169 00000000 31080000 
                       EMCControl
                               EQU              (SDRAM_BASE_ADDR + 0x00)
  170 00000000 31080004 
                       EMCStatus
                               EQU              (SDRAM_BASE_ADDR + 0x04)
  171 00000000 31080008 
                       EMCConfig
                               EQU              (SDRAM_BASE_ADDR + 0x08)
  172 00000000 31080020 
                       EMCDynamicControl
                               EQU              (SDRAM_BASE_ADDR + 0x20)
  173 00000000 31080024 
                       EMCDynamicRefresh
                               EQU              (SDRAM_BASE_ADDR + 0x24)
  174 00000000 31080028 
                       EMCDynamicReadConfig
                               EQU              (SDRAM_BASE_ADDR + 0x28)
  175 00000000 31080030 
                       EMCDynamicRP
                               EQU              (SDRAM_BASE_ADDR + 0x30)
  176 00000000 31080034 
                       EMCDynamicRAS
                               EQU              (SDRAM_BASE_ADDR + 0x34)
  177 00000000 31080038 
                       EMCDynamicSREX
                               EQU              (SDRAM_BASE_ADDR + 0x38)



ARM Macro Assembler    Page 9 


  178 00000000 31080044 
                       EMCDynamicWR
                               EQU              (SDRAM_BASE_ADDR + 0x44)
  179 00000000 31080048 
                       EMCDynamicRC
                               EQU              (SDRAM_BASE_ADDR + 0x48)
  180 00000000 3108004C 
                       EMCDynamicRFC
                               EQU              (SDRAM_BASE_ADDR + 0x4C)
  181 00000000 31080050 
                       EMCDynamicXSR
                               EQU              (SDRAM_BASE_ADDR + 0x50)
  182 00000000 31080054 
                       EMCDynamicRRD
                               EQU              (SDRAM_BASE_ADDR + 0x54)
  183 00000000 31080058 
                       EMCDynamicMRD
                               EQU              (SDRAM_BASE_ADDR + 0x58)
  184 00000000 3108005C 
                       EMCDynamicCDLR
                               EQU              (SDRAM_BASE_ADDR + 0x5C)
  185 00000000 31080080 
                       EMCStaticExtendedWait
                               EQU              (SDRAM_BASE_ADDR + 0x80)
  186 00000000         
  187 00000000 31080100 
                       EMCDynamicConfig0
                               EQU              (SDRAM_BASE_ADDR + 0x100)
  188 00000000 31080104 
                       EMCDynamicRasCas0
                               EQU              (SDRAM_BASE_ADDR + 0x104)
  189 00000000         
  190 00000000 31080120 
                       EMCDynamicConfig1
                               EQU              (SDRAM_BASE_ADDR + 0x120)
  191 00000000 31080124 
                       EMCDynamicRasCas1
                               EQU              (SDRAM_BASE_ADDR + 0x124)
  192 00000000         
  193 00000000 31080400 
                       EMCAHBControl0
                               EQU              (SDRAM_BASE_ADDR + 0x400)
  194 00000000 31080404 
                       EMCAHBStatus0
                               EQU              (SDRAM_BASE_ADDR + 0x404)
  195 00000000 31080408 
                       EMCAHBTimeout0
                               EQU              (SDRAM_BASE_ADDR + 0x408)
  196 00000000         
  197 00000000 31080440 
                       EMCAHBControl2
                               EQU              (SDRAM_BASE_ADDR + 0x440)
  198 00000000 31080444 
                       EMCAHBStatus2
                               EQU              (SDRAM_BASE_ADDR + 0x444)
  199 00000000 31080448 
                       EMCAHBTimeout2
                               EQU              (SDRAM_BASE_ADDR + 0x448)
  200 00000000         



ARM Macro Assembler    Page 10 


  201 00000000 31080460 
                       EMCAHBControl3
                               EQU              (SDRAM_BASE_ADDR + 0x460)
  202 00000000 31080464 
                       EMCAHBStatus3
                               EQU              (SDRAM_BASE_ADDR + 0x464)
  203 00000000 31080468 
                       EMCAHBTimeout3
                               EQU              (SDRAM_BASE_ADDR + 0x468)
  204 00000000         
  205 00000000 31080480 
                       EMCAHBControl4
                               EQU              (SDRAM_BASE_ADDR + 0x480)
  206 00000000 31080484 
                       EMCAHBStatus4
                               EQU              (SDRAM_BASE_ADDR + 0x484)
  207 00000000 31080488 
                       EMCAHBTimeout4
                               EQU              (SDRAM_BASE_ADDR + 0x488)
  208 00000000         
  209 00000000 40004000 
                       DDR_BASE_ADDR
                               EQU              0x40004000
  210 00000000 4000406C 
                       DDR_LAP_NOM
                               EQU              (DDR_BASE_ADDR + 0x6C)
  211 00000000 40004070 
                       DDR_LAP_COUNT
                               EQU              (DDR_BASE_ADDR + 0x70)
  212 00000000 40004074 
                       DDR_CAL_DELAY
                               EQU              (DDR_BASE_ADDR + 0x74)
  213 00000000         
  214 00000000 31080200 
                       EMC_STATIC_BASE_ADDR
                               EQU              0x31080200
  215 00000000 31080200 
                       EMCStaticConfig0
                               EQU              (EMC_STATIC_BASE_ADDR + 0x00)
  216 00000000 31080204 
                       EMCStaticWaitWen0
                               EQU              (EMC_STATIC_BASE_ADDR + 0x04)
  217 00000000 31080208 
                       EMCStaticWaitOen0
                               EQU              (EMC_STATIC_BASE_ADDR + 0x08)
  218 00000000 3108020C 
                       EMCStaticWaitRd0
                               EQU              (EMC_STATIC_BASE_ADDR + 0x0C)
  219 00000000 31080210 
                       EMCStaticwaitPage0
                               EQU              (EMC_STATIC_BASE_ADDR + 0x10)
  220 00000000 31080214 
                       EMCStaticWaitWr0
                               EQU              (EMC_STATIC_BASE_ADDR + 0x14)
  221 00000000 31080218 
                       EMCStaticWaitTurn0
                               EQU              (EMC_STATIC_BASE_ADDR + 0x18)
  222 00000000         
  223 00000000 31080220 



ARM Macro Assembler    Page 11 


                       EMCStaticConfig1
                               EQU              (EMC_STATIC_BASE_ADDR + 0x20)
  224 00000000 31080224 
                       EMCStaticWaitWen1
                               EQU              (EMC_STATIC_BASE_ADDR + 0x24)
  225 00000000 31080228 
                       EMCStaticWaitOen1
                               EQU              (EMC_STATIC_BASE_ADDR + 0x28)
  226 00000000 3108022C 
                       EMCStaticWaitRd1
                               EQU              (EMC_STATIC_BASE_ADDR + 0x2C)
  227 00000000 31080230 
                       EMCStaticwaitPage1
                               EQU              (EMC_STATIC_BASE_ADDR + 0x30)
  228 00000000 31080234 
                       EMCStaticWaitWr1
                               EQU              (EMC_STATIC_BASE_ADDR + 0x34)
  229 00000000 31080238 
                       EMCStaticWaitTurn1
                               EQU              (EMC_STATIC_BASE_ADDR + 0x38)
  230 00000000         
  231 00000000 31080240 
                       EMCStaticConfig2
                               EQU              (EMC_STATIC_BASE_ADDR + 0x40)
  232 00000000 31080244 
                       EMCStaticWaitWen2
                               EQU              (EMC_STATIC_BASE_ADDR + 0x44)
  233 00000000 31080248 
                       EMCStaticWaitOen2
                               EQU              (EMC_STATIC_BASE_ADDR + 0x48)
  234 00000000 3108024C 
                       EMCStaticWaitRd2
                               EQU              (EMC_STATIC_BASE_ADDR + 0x4C)
  235 00000000 31080250 
                       EMCStaticwaitPage2
                               EQU              (EMC_STATIC_BASE_ADDR + 0x50)
  236 00000000 31080254 
                       EMCStaticWaitWr2
                               EQU              (EMC_STATIC_BASE_ADDR + 0x54)
  237 00000000 31080258 
                       EMCStaticWaitTurn2
                               EQU              (EMC_STATIC_BASE_ADDR + 0x58)
  238 00000000         
  239 00000000 31080260 
                       EMCStaticConfig3
                               EQU              (EMC_STATIC_BASE_ADDR + 0x60)
  240 00000000 31080264 
                       EMCStaticWaitWen3
                               EQU              (EMC_STATIC_BASE_ADDR + 0x64)
  241 00000000 31080268 
                       EMCStaticWaitOen3
                               EQU              (EMC_STATIC_BASE_ADDR + 0x68)
  242 00000000 3108026C 
                       EMCStaticWaitRd3
                               EQU              (EMC_STATIC_BASE_ADDR + 0x6C)
  243 00000000 31080270 
                       EMCStaticwaitPage3
                               EQU              (EMC_STATIC_BASE_ADDR + 0x70)
  244 00000000 31080274 



ARM Macro Assembler    Page 12 


                       EMCStaticWaitWr3
                               EQU              (EMC_STATIC_BASE_ADDR + 0x74)
  245 00000000 31080278 
                       EMCStaticWaitTurn3
                               EQU              (EMC_STATIC_BASE_ADDR + 0x78)
  246 00000000         
  247 00000000 200B8000 
                       MLC_BASE_ADDR
                               EQU              0x200B8000
  248 00000000 200B8000 
                       MLC_CMD EQU              (MLC_BASE_ADDR + 0x00)
  249 00000000 200B8004 
                       MLC_ADDR
                               EQU              (MLC_BASE_ADDR + 0x04)
  250 00000000 200B8008 
                       MLC_ECC_ENC_REG
                               EQU              (MLC_BASE_ADDR + 0x08)
  251 00000000 200B800C 
                       MLC_ECC_DEC_REG
                               EQU              (MLC_BASE_ADDR + 0x0C)
  252 00000000 200B8010 
                       MLC_ECC_AUTO_ENC_REG
                               EQU              (MLC_BASE_ADDR + 0x10)
  253 00000000 200B8014 
                       MLC_ECC_AUTO_DEC_REG
                               EQU              (MLC_BASE_ADDR + 0x14)
  254 00000000 200B8018 
                       MLC_RPR EQU              (MLC_BASE_ADDR + 0x18)
  255 00000000 200B801C 
                       MLC_WPR EQU              (MLC_BASE_ADDR + 0x1C)
  256 00000000 200B8020 
                       MLC_RUBP
                               EQU              (MLC_BASE_ADDR + 0x20)
  257 00000000 200B8024 
                       MLC_ROBP
                               EQU              (MLC_BASE_ADDR + 0x24)
  258 00000000 200B8028 
                       MLC_SW_WP_ADD_LOW
                               EQU              (MLC_BASE_ADDR + 0x28)
  259 00000000 200B802C 
                       MLC_SW_WP_ADD_HIG
                               EQU              (MLC_BASE_ADDR + 0x2C)
  260 00000000 200B8030 
                       MLC_ICR EQU              (MLC_BASE_ADDR + 0x30)
  261 00000000 200B8034 
                       MLC_TIME_REG
                               EQU              (MLC_BASE_ADDR + 0x34)
  262 00000000 200B8038 
                       MLC_IRQ_MR
                               EQU              (MLC_BASE_ADDR + 0x38)
  263 00000000 200B803C 
                       MLC_IRQ_SR
                               EQU              (MLC_BASE_ADDR + 0x3C)
  264 00000000 200B8044 
                       MLC_LOCK_PR
                               EQU              (MLC_BASE_ADDR + 0x44)
  265 00000000 200B8048 
                       MLC_ISR EQU              (MLC_BASE_ADDR + 0x48)
  266 00000000 200B804C 



ARM Macro Assembler    Page 13 


                       MLC_CEH EQU              (MLC_BASE_ADDR + 0x4C)
  267 00000000         
  268 00000000 200A8000 
                       MLC_BUFF
                               EQU              (0x200A8000)
  269 00000000 200B0000 
                       MLC_DATA
                               EQU              (0x200B0000)
  270 00000000         
  271 00000000 20020000 
                       SLC_BASE_ADDR
                               EQU              0x20020000
  272 00000000 20020000 
                       SLC_DATA
                               EQU              (SLC_BASE_ADDR + 0x00)
  273 00000000 20020004 
                       SLC_ADDR
                               EQU              (SLC_BASE_ADDR + 0x04)
  274 00000000 20020008 
                       SLC_CMD EQU              (SLC_BASE_ADDR + 0x08)
  275 00000000 2002000C 
                       SLC_STOP
                               EQU              (SLC_BASE_ADDR + 0x0C)
  276 00000000 20020010 
                       SLC_CTRL
                               EQU              (SLC_BASE_ADDR + 0x10)
  277 00000000 20020014 
                       SLC_CFG EQU              (SLC_BASE_ADDR + 0x14)
  278 00000000 20020018 
                       SLC_STAT
                               EQU              (SLC_BASE_ADDR + 0x18)
  279 00000000 2002001C 
                       SLC_INT_STAT
                               EQU              (SLC_BASE_ADDR + 0x1C)
  280 00000000 20020020 
                       SLC_IEN EQU              (SLC_BASE_ADDR + 0x20)
  281 00000000 20020024 
                       SLC_ISR EQU              (SLC_BASE_ADDR + 0x24)
  282 00000000 20020028 
                       SLC_ICR EQU              (SLC_BASE_ADDR + 0x28)
  283 00000000 2002002C 
                       SLC_TAC EQU              (SLC_BASE_ADDR + 0x2C)
  284 00000000 20020030 
                       SLC_TC  EQU              (SLC_BASE_ADDR + 0x30)
  285 00000000 20020034 
                       SLC_ECC EQU              (SLC_BASE_ADDR + 0x34)
  286 00000000 20020038 
                       SLC_DMA_DATA
                               EQU              (SLC_BASE_ADDR + 0x38)
  287 00000000         
  288 00000000 31040000 
                       LCD_BASE_ADDR
                               EQU              0x31040000
  289 00000000 31040000 
                       LCD_TIMH
                               EQU              (LCD_BASE_ADDR + 0x000)
  290 00000000 31040004 
                       LCD_TIMV
                               EQU              (LCD_BASE_ADDR + 0x004)



ARM Macro Assembler    Page 14 


  291 00000000 31040008 
                       LCD_POL EQU              (LCD_BASE_ADDR + 0x008)
  292 00000000 3104000C 
                       LCD_LE  EQU              (LCD_BASE_ADDR + 0x00C)
  293 00000000 31040010 
                       LCD_UPBASE
                               EQU              (LCD_BASE_ADDR + 0x010)
  294 00000000 31040014 
                       LCD_LPBASE
                               EQU              (LCD_BASE_ADDR + 0x014)
  295 00000000 31040018 
                       LCD_CTRL
                               EQU              (LCD_BASE_ADDR + 0x018)
  296 00000000 3104001C 
                       LCD_INTMSK
                               EQU              (LCD_BASE_ADDR + 0x01C)
  297 00000000 31040020 
                       LCD_INTRAW
                               EQU              (LCD_BASE_ADDR + 0x020)
  298 00000000 31040024 
                       LCD_INTSTAT
                               EQU              (LCD_BASE_ADDR + 0x024)
  299 00000000 31040028 
                       LCD_INTCLR
                               EQU              (LCD_BASE_ADDR + 0x028)
  300 00000000 3104002C 
                       LCD_UPCURR
                               EQU              (LCD_BASE_ADDR + 0x02C)
  301 00000000 31040030 
                       LCD_LPCURR
                               EQU              (LCD_BASE_ADDR + 0x030)
  302 00000000         
  303 00000000 31040200 
                       LCD_PAL EQU              (LCD_BASE_ADDR + 0x200)
  304 00000000         
  305 00000000 31040800 
                       CRSR_IMG
                               EQU              (LCD_BASE_ADDR + 0x800)
  306 00000000 31040C00 
                       CRSR_CTRL
                               EQU              (LCD_BASE_ADDR + 0xC00)
  307 00000000 31040C04 
                       CRSR_CFG
                               EQU              (LCD_BASE_ADDR + 0xC04)
  308 00000000 31040C08 
                       CRSR_PAL0
                               EQU              (LCD_BASE_ADDR + 0xC08)
  309 00000000 31040C0C 
                       CRSR_PAL1
                               EQU              (LCD_BASE_ADDR + 0xC0C)
  310 00000000 31040C10 
                       CRSR_XY EQU              (LCD_BASE_ADDR + 0xC10)
  311 00000000 31040C14 
                       CRSR_CLIP
                               EQU              (LCD_BASE_ADDR + 0xC14)
  312 00000000 31040C20 
                       CRSR_INTMSK
                               EQU              (LCD_BASE_ADDR + 0xC20)
  313 00000000 31040C24 



ARM Macro Assembler    Page 15 


                       CRSR_INTCLR
                               EQU              (LCD_BASE_ADDR + 0xC24)
  314 00000000 31040C28 
                       CRSR_INTRAW
                               EQU              (LCD_BASE_ADDR + 0xC28)
  315 00000000 31040C2C 
                       CRSR_INTSTAT
                               EQU              (LCD_BASE_ADDR + 0xC2C)
  316 00000000         
  317 00000000 40048000 
                       TOUCH_BASE_ADDR
                               EQU              0x40048000
  318 00000000 40048000 
                       ADC_STAT
                               EQU              (TOUCH_BASE_ADDR + 0x00)
  319 00000000 40048004 
                       ADC_SELECT
                               EQU              (TOUCH_BASE_ADDR + 0x04)
  320 00000000 40048008 
                       ADC_CTRL
                               EQU              (TOUCH_BASE_ADDR + 0x08)
  321 00000000 4004800C 
                       TSC_SAMPLE_FIFO
                               EQU              (TOUCH_BASE_ADDR + 0x0c)
  322 00000000 40048010 
                       TSC_DTR EQU              (TOUCH_BASE_ADDR + 0x10)
  323 00000000 40048014 
                       TSC_RTR EQU              (TOUCH_BASE_ADDR + 0x14)
  324 00000000 40048018 
                       TSC_UTR EQU              (TOUCH_BASE_ADDR + 0x18)
  325 00000000 4004801C 
                       TSC_TTR EQU              (TOUCH_BASE_ADDR + 0x1C)
  326 00000000 40048020 
                       TSC_DXP EQU              (TOUCH_BASE_ADDR + 0x20)
  327 00000000 40048024 
                       TSC_MIN_X
                               EQU              (TOUCH_BASE_ADDR + 0x24)
  328 00000000 40048028 
                       TSC_MAX_X
                               EQU              (TOUCH_BASE_ADDR + 0x28)
  329 00000000 4004802C 
                       TSC_MIN_Y
                               EQU              (TOUCH_BASE_ADDR + 0x2C)
  330 00000000 40048030 
                       TSC_MAX_Y
                               EQU              (TOUCH_BASE_ADDR + 0x30)
  331 00000000 40048034 
                       TSC_AUX_UTR
                               EQU              (TOUCH_BASE_ADDR + 0x34)
  332 00000000 40048038 
                       TSC_AUX_MIN
                               EQU              (TOUCH_BASE_ADDR + 0x38)
  333 00000000 4004803C 
                       TSC_AUX_MAX
                               EQU              (TOUCH_BASE_ADDR + 0x3C)
  334 00000000 40048044 
                       TSC_AUX_VALUE
                               EQU              (TOUCH_BASE_ADDR + 0x44)
  335 00000000 40048048 



ARM Macro Assembler    Page 16 


                       ADC_VALUE
                               EQU              (TOUCH_BASE_ADDR + 0x48)
  336 00000000         
  337 00000000 40050000 
                       KS_BASE_ADDR
                               EQU              0x40050000
  338 00000000 40050000 
                       KS_DEB  EQU              (KS_BASE_ADDR + 0x00)
  339 00000000 40050004 
                       KS_STATE_COND
                               EQU              (KS_BASE_ADDR + 0x04)
  340 00000000 40050008 
                       KS_IRQ  EQU              (KS_BASE_ADDR + 0x08)
  341 00000000 4005000C 
                       KS_SCAN_CTL
                               EQU              (KS_BASE_ADDR + 0x0C)
  342 00000000 40050010 
                       KS_FAST_TST
                               EQU              (KS_BASE_ADDR + 0x10)
  343 00000000 40050014 
                       KS_MATRIX_DIM
                               EQU              (KS_BASE_ADDR + 0x14)
  344 00000000 40050040 
                       KS_DATA0
                               EQU              (KS_BASE_ADDR + 0x40)
  345 00000000 40050044 
                       KS_DATA1
                               EQU              (KS_BASE_ADDR + 0x44)
  346 00000000 40050048 
                       KS_DATA2
                               EQU              (KS_BASE_ADDR + 0x48)
  347 00000000 4005004C 
                       KS_DATA3
                               EQU              (KS_BASE_ADDR + 0x4C)
  348 00000000 40050050 
                       KS_DATA4
                               EQU              (KS_BASE_ADDR + 0x50)
  349 00000000 40050054 
                       KS_DATA5
                               EQU              (KS_BASE_ADDR + 0x54)
  350 00000000 40050058 
                       KS_DATA6
                               EQU              (KS_BASE_ADDR + 0x58)
  351 00000000 4005005C 
                       KS_DATA7
                               EQU              (KS_BASE_ADDR + 0x5C)
  352 00000000         
  353 00000000 31060000 
                       MAC_BASE_ADDR
                               EQU              0x31060000
  354 00000000 31060000 
                       MAC_MAC1
                               EQU              (MAC_BASE_ADDR + 0x000)
  355 00000000 31060004 
                       MAC_MAC2
                               EQU              (MAC_BASE_ADDR + 0x004)
  356 00000000 31060008 
                       MAC_IPGT
                               EQU              (MAC_BASE_ADDR + 0x008)



ARM Macro Assembler    Page 17 


  357 00000000 3106000C 
                       MAC_IPGR
                               EQU              (MAC_BASE_ADDR + 0x00C)
  358 00000000 31060010 
                       MAC_CLRT
                               EQU              (MAC_BASE_ADDR + 0x010)
  359 00000000 31060014 
                       MAC_MAXF
                               EQU              (MAC_BASE_ADDR + 0x014)
  360 00000000 31060018 
                       MAC_SUPP
                               EQU              (MAC_BASE_ADDR + 0x018)
  361 00000000 3106001C 
                       MAC_TEST
                               EQU              (MAC_BASE_ADDR + 0x01C)
  362 00000000 31060020 
                       MAC_MCFG
                               EQU              (MAC_BASE_ADDR + 0x020)
  363 00000000 31060024 
                       MAC_MCMD
                               EQU              (MAC_BASE_ADDR + 0x024)
  364 00000000 31060028 
                       MAC_MADR
                               EQU              (MAC_BASE_ADDR + 0x028)
  365 00000000 3106002C 
                       MAC_MWTD
                               EQU              (MAC_BASE_ADDR + 0x02C)
  366 00000000 31060030 
                       MAC_MRDD
                               EQU              (MAC_BASE_ADDR + 0x030)
  367 00000000 31060034 
                       MAC_MIND
                               EQU              (MAC_BASE_ADDR + 0x034)
  368 00000000         
  369 00000000 31060040 
                       MAC_SA0 EQU              (MAC_BASE_ADDR + 0x040)
  370 00000000 31060044 
                       MAC_SA1 EQU              (MAC_BASE_ADDR + 0x044)
  371 00000000 31060048 
                       MAC_SA2 EQU              (MAC_BASE_ADDR + 0x048)
  372 00000000         
  373 00000000 31060100 
                       MAC_COMMAND
                               EQU              (MAC_BASE_ADDR + 0x100)
  374 00000000 31060104 
                       MAC_STATUS
                               EQU              (MAC_BASE_ADDR + 0x104)
  375 00000000 31060108 
                       MAC_RXDESCRIPTOR
                               EQU              (MAC_BASE_ADDR + 0x108)
  376 00000000 3106010C 
                       MAC_RXSTATUS
                               EQU              (MAC_BASE_ADDR + 0x10C)
  377 00000000 31060110 
                       MAC_RXDESCRIPTORNUM
                               EQU              (MAC_BASE_ADDR + 0x110)
  378 00000000 31060114 
                       MAC_RXPRODUCEINDEX
                               EQU              (MAC_BASE_ADDR + 0x114)



ARM Macro Assembler    Page 18 


  379 00000000 31060118 
                       MAC_RXCONSUMEINDEX
                               EQU              (MAC_BASE_ADDR + 0x118)
  380 00000000 3106011C 
                       MAC_TXDESCRIPTOR
                               EQU              (MAC_BASE_ADDR + 0x11C)
  381 00000000 31060120 
                       MAC_TXSTATUS
                               EQU              (MAC_BASE_ADDR + 0x120)
  382 00000000 31060124 
                       MAC_TXDESCRIPTORNUM
                               EQU              (MAC_BASE_ADDR + 0x124)
  383 00000000 31060128 
                       MAC_TXPRODUCEINDEX
                               EQU              (MAC_BASE_ADDR + 0x128)
  384 00000000 3106012C 
                       MAC_TXCONSUMEINDEX
                               EQU              (MAC_BASE_ADDR + 0x12C)
  385 00000000         
  386 00000000 31060158 
                       MAC_TSV0
                               EQU              (MAC_BASE_ADDR + 0x158)
  387 00000000 3106015C 
                       MAC_TSV1
                               EQU              (MAC_BASE_ADDR + 0x15C)
  388 00000000 31060160 
                       MAC_RSV EQU              (MAC_BASE_ADDR + 0x160)
  389 00000000         
  390 00000000 31060170 
                       MAC_FLOWCONTROLCNT
                               EQU              (MAC_BASE_ADDR + 0x170)
  391 00000000 31060174 
                       MAC_FLOWCONTROLSTS
                               EQU              (MAC_BASE_ADDR + 0x174)
  392 00000000         
  393 00000000 31060200 
                       MAC_RXFILTERCTRL
                               EQU              (MAC_BASE_ADDR + 0x200)
  394 00000000 31060204 
                       MAC_RXFILTERWOLSTS
                               EQU              (MAC_BASE_ADDR + 0x204)
  395 00000000 31060208 
                       MAC_RXFILTERWOLCLR
                               EQU              (MAC_BASE_ADDR + 0x208)
  396 00000000         
  397 00000000 31060210 
                       MAC_HASHFILTERL
                               EQU              (MAC_BASE_ADDR + 0x210)
  398 00000000 31060214 
                       MAC_HASHFILTERH
                               EQU              (MAC_BASE_ADDR + 0x214)
  399 00000000         
  400 00000000 31060FE0 
                       MAC_INTSTATUS
                               EQU              (MAC_BASE_ADDR + 0xFE0)
  401 00000000 31060FE4 
                       MAC_INTENABLE
                               EQU              (MAC_BASE_ADDR + 0xFE4)
  402 00000000 31060FE8 



ARM Macro Assembler    Page 19 


                       MAC_INTCLEAR
                               EQU              (MAC_BASE_ADDR + 0xFE8)
  403 00000000 31060FEC 
                       MAC_INTSET
                               EQU              (MAC_BASE_ADDR + 0xFEC)
  404 00000000         
  405 00000000 31060FF4 
                       MAC_POWERDOWN
                               EQU              (MAC_BASE_ADDR + 0xFF4)
  406 00000000 31060FFC 
                       MAC_MODULEID
                               EQU              (MAC_BASE_ADDR + 0xFFC)
  407 00000000         
  408 00000000 31020200 
                       USB_BASE_ADDR
                               EQU              0x31020200
  409 00000000         
  410 00000000 31020200 
                       DEV_INT_STAT
                               EQU              (USB_BASE_ADDR + 0x00)
  411 00000000 31020204 
                       DEV_INT_EN
                               EQU              (USB_BASE_ADDR + 0x04)
  412 00000000 31020208 
                       DEV_INT_CLR
                               EQU              (USB_BASE_ADDR + 0x08)
  413 00000000 3102020C 
                       DEV_INT_SET
                               EQU              (USB_BASE_ADDR + 0x0C)
  414 00000000 3102022C 
                       DEV_INT_PRIO
                               EQU              (USB_BASE_ADDR + 0x2C)
  415 00000000 31020230 
                       EP_INT_STAT
                               EQU              (USB_BASE_ADDR + 0x30)
  416 00000000 31020234 
                       EP_INT_EN
                               EQU              (USB_BASE_ADDR + 0x34)
  417 00000000 31020238 
                       EP_INT_CLR
                               EQU              (USB_BASE_ADDR + 0x38)
  418 00000000 3102023C 
                       EP_INT_SET
                               EQU              (USB_BASE_ADDR + 0x3C)
  419 00000000 31020240 
                       EP_INT_PRIO
                               EQU              (USB_BASE_ADDR + 0x40)
  420 00000000 31020244 
                       REALIZE_EP
                               EQU              (USB_BASE_ADDR + 0x44)
  421 00000000 31020248 
                       EP_INDEX
                               EQU              (USB_BASE_ADDR + 0x48)
  422 00000000 3102024C 
                       MAXPACKET_SIZE
                               EQU              (USB_BASE_ADDR + 0x4C)
  423 00000000 31020210 
                       CMD_CODE
                               EQU              (USB_BASE_ADDR + 0x10)



ARM Macro Assembler    Page 20 


  424 00000000 31020214 
                       CMD_DATA
                               EQU              (USB_BASE_ADDR + 0x14)
  425 00000000 31020218 
                       RX_DATA EQU              (USB_BASE_ADDR + 0x18)
  426 00000000 3102021C 
                       TX_DATA EQU              (USB_BASE_ADDR + 0x1C)
  427 00000000 31020220 
                       RX_PLENGTH
                               EQU              (USB_BASE_ADDR + 0x20)
  428 00000000 31020224 
                       TX_PLENGTH
                               EQU              (USB_BASE_ADDR + 0x24)
  429 00000000 31020228 
                       USB_CTRL
                               EQU              (USB_BASE_ADDR + 0x28)
  430 00000000 3102027C 
                       DC_REVISION
                               EQU              (USB_BASE_ADDR + 0x7C)
  431 00000000         
  432 00000000 31020250 
                       DMA_REQ_STAT
                               EQU              (USB_BASE_ADDR + 0x50)
  433 00000000 31020254 
                       DMA_REQ_CLR
                               EQU              (USB_BASE_ADDR + 0x54)
  434 00000000 31020258 
                       DMA_REQ_SET
                               EQU              (USB_BASE_ADDR + 0x58)
  435 00000000 31020280 
                       UDCA_HEAD
                               EQU              (USB_BASE_ADDR + 0x80)
  436 00000000 31020284 
                       EP_DMA_STAT
                               EQU              (USB_BASE_ADDR + 0x84)
  437 00000000 31020288 
                       EP_DMA_EN
                               EQU              (USB_BASE_ADDR + 0x88)
  438 00000000 3102028C 
                       EP_DMA_DIS
                               EQU              (USB_BASE_ADDR + 0x8C)
  439 00000000 31020290 
                       DMA_INT_STAT
                               EQU              (USB_BASE_ADDR + 0x90)
  440 00000000 31020294 
                       DMA_INT_EN
                               EQU              (USB_BASE_ADDR + 0x94)
  441 00000000 310202A0 
                       EOT_INT_STAT
                               EQU              (USB_BASE_ADDR + 0xA0)
  442 00000000 310202A4 
                       EOT_INT_CLR
                               EQU              (USB_BASE_ADDR + 0xA4)
  443 00000000 310202A8 
                       EOT_INT_SET
                               EQU              (USB_BASE_ADDR + 0xA8)
  444 00000000 310202AC 
                       NDD_REQ_INT_STAT
                               EQU              (USB_BASE_ADDR + 0xAC)



ARM Macro Assembler    Page 21 


  445 00000000 310202B0 
                       NDD_REQ_INT_CLR
                               EQU              (USB_BASE_ADDR + 0xB0)
  446 00000000 310202B4 
                       NDD_REQ_INT_SET
                               EQU              (USB_BASE_ADDR + 0xB4)
  447 00000000 310202B8 
                       SYS_ERR_INT_STAT
                               EQU              (USB_BASE_ADDR + 0xB8)
  448 00000000 310202BC 
                       SYS_ERR_INT_CLR
                               EQU              (USB_BASE_ADDR + 0xBC)
  449 00000000 310202C0 
                       SYS_ERR_INT_SET
                               EQU              (USB_BASE_ADDR + 0xC0)
  450 00000000 310202FC 
                       MODULE_ID
                               EQU              (USB_BASE_ADDR + 0xFC)
  451 00000000         
  452 00000000 31020000 
                       USBH_BASE_ADDR
                               EQU              0x31020000
  453 00000000 31020000 
                       HcRevision
                               EQU              (USBH_BASE_ADDR + 0x00)
  454 00000000 31020004 
                       HcControl
                               EQU              (USBH_BASE_ADDR + 0x04)
  455 00000000 31020008 
                       HcCommandStatus
                               EQU              (USBH_BASE_ADDR + 0x08)
  456 00000000 3102000C 
                       HcInterruptStatus
                               EQU              (USBH_BASE_ADDR + 0x0C)
  457 00000000 31020010 
                       HcInterruptEnable
                               EQU              (USBH_BASE_ADDR + 0x10)
  458 00000000 31020014 
                       HcInterruptDisable
                               EQU              (USBH_BASE_ADDR + 0x14)
  459 00000000 31020018 
                       HcHCCA  EQU              (USBH_BASE_ADDR + 0x18)
  460 00000000 3102001C 
                       HcPeriodCurrentED
                               EQU              (USBH_BASE_ADDR + 0x1C)
  461 00000000 31020020 
                       HcControlHeadED
                               EQU              (USBH_BASE_ADDR + 0x20)
  462 00000000 31020024 
                       HcControlCurrentED
                               EQU              (USBH_BASE_ADDR + 0x24)
  463 00000000 31020028 
                       HcBulkHeadED
                               EQU              (USBH_BASE_ADDR + 0x28)
  464 00000000 3102002C 
                       HcBulkCurrentED
                               EQU              (USBH_BASE_ADDR + 0x2C)
  465 00000000 31020030 
                       HcDoneHead



ARM Macro Assembler    Page 22 


                               EQU              (USBH_BASE_ADDR + 0x30)
  466 00000000 31020034 
                       HcFmInterval
                               EQU              (USBH_BASE_ADDR + 0x34)
  467 00000000 31020038 
                       HcFmRemaining
                               EQU              (USBH_BASE_ADDR + 0x38)
  468 00000000 3102003C 
                       HcFmNumber
                               EQU              (USBH_BASE_ADDR + 0x3C)
  469 00000000 31020040 
                       HcPeriodicStart
                               EQU              (USBH_BASE_ADDR + 0x40)
  470 00000000 31020044 
                       HcLSThreshold
                               EQU              (USBH_BASE_ADDR + 0x44)
  471 00000000 31020048 
                       HcRhDescriptorA
                               EQU              (USBH_BASE_ADDR + 0x48)
  472 00000000 3102004C 
                       HcRhDescriptorB
                               EQU              (USBH_BASE_ADDR + 0x4C)
  473 00000000 31020050 
                       HcRhStatus
                               EQU              (USBH_BASE_ADDR + 0x50)
  474 00000000 31020054 
                       HcRhPortStatus1
                               EQU              (USBH_BASE_ADDR + 0x54)
  475 00000000 31020058 
                       HcRhPortStatus2
                               EQU              (USBH_BASE_ADDR + 0x58)
  476 00000000 3102005C 
                       HcModuleID
                               EQU              (USBH_BASE_ADDR + 0x5C)
  477 00000000         
  478 00000000 31020000 
                       USB_OTG_BASE_ADDR
                               EQU              0x31020000
  479 00000000 31020100 
                       OTG_INT_STATUS
                               EQU              (USB_OTG_BASE_ADDR + 0x100)
  480 00000000 31020104 
                       OTG_INT_ENABLE
                               EQU              (USB_OTG_BASE_ADDR + 0x104)
  481 00000000 31020108 
                       OTG_INT_SET
                               EQU              (USB_OTG_BASE_ADDR + 0x108)
  482 00000000 3102010C 
                       OTG_INT_CLEAR
                               EQU              (USB_OTG_BASE_ADDR + 0x10C)
  483 00000000 31020110 
                       OTG_STATUS
                               EQU              (USB_OTG_BASE_ADDR + 0x110)
  484 00000000 31020114 
                       OTG_TIMER
                               EQU              (USB_OTG_BASE_ADDR + 0x114)
  485 00000000 31020FF4 
                       OTG_CLOCK_CONTROL
                               EQU              (USB_OTG_BASE_ADDR + 0xFF4)



ARM Macro Assembler    Page 23 


  486 00000000 31020FF8 
                       OTG_CLOCK_STATUS
                               EQU              (USB_OTG_BASE_ADDR + 0xFF8)
  487 00000000         
  488 00000000 31020300 
                       OTG_I2C_BASE_ADDR
                               EQU              0x31020300
  489 00000000 31020300 
                       I2C_RX  EQU              (OTG_I2C_BASE_ADDR + 0x00)
  490 00000000 31020300 
                       I2C_TX  EQU              (OTG_I2C_BASE_ADDR + 0x00)
  491 00000000 31020304 
                       I2C_STS EQU              (OTG_I2C_BASE_ADDR + 0x04)
  492 00000000 31020308 
                       I2C_CTL EQU              (OTG_I2C_BASE_ADDR + 0x08)
  493 00000000 3102030C 
                       I2C_CLKHI
                               EQU              (OTG_I2C_BASE_ADDR + 0x0C)
  494 00000000 31020310 
                       I2C_CLKLO
                               EQU              (OTG_I2C_BASE_ADDR + 0x10)
  495 00000000         
  496 00000000 20098000 
                       SD_BASE_ADDR
                               EQU              0x20098000
  497 00000000 20098000 
                       SD_POWER
                               EQU              (SD_BASE_ADDR + 0x00)
  498 00000000 20098004 
                       SD_CLOCK
                               EQU              (SD_BASE_ADDR + 0x04)
  499 00000000 20098008 
                       SD_ARGUMENT
                               EQU              (SD_BASE_ADDR + 0x08)
  500 00000000 2009800C 
                       SD_COMMAND
                               EQU              (SD_BASE_ADDR + 0x0C)
  501 00000000 20098010 
                       SD_RESPCMD
                               EQU              (SD_BASE_ADDR + 0x10)
  502 00000000 20098014 
                       SD_RESPONSE0
                               EQU              (SD_BASE_ADDR + 0x14)
  503 00000000 20098018 
                       SD_RESPONSE1
                               EQU              (SD_BASE_ADDR + 0x18)
  504 00000000 2009801C 
                       SD_RESPONSE2
                               EQU              (SD_BASE_ADDR + 0x1C)
  505 00000000 20098020 
                       SD_RESPONSE3
                               EQU              (SD_BASE_ADDR + 0x20)
  506 00000000 20098024 
                       SD_DATATIMER
                               EQU              (SD_BASE_ADDR + 0x24)
  507 00000000 20098028 
                       SD_DATALENGTH
                               EQU              (SD_BASE_ADDR + 0x28)
  508 00000000 2009802C 



ARM Macro Assembler    Page 24 


                       SD_DATACTRL
                               EQU              (SD_BASE_ADDR + 0x2C)
  509 00000000 20098030 
                       SD_DATACNT
                               EQU              (SD_BASE_ADDR + 0x30)
  510 00000000 20098034 
                       SD_STATUS
                               EQU              (SD_BASE_ADDR + 0x34)
  511 00000000 20098038 
                       SD_CLEAR
                               EQU              (SD_BASE_ADDR + 0x38)
  512 00000000 2009803C 
                       SD_MASK0
                               EQU              (SD_BASE_ADDR + 0x3C)
  513 00000000 20098040 
                       SD_MASK1
                               EQU              (SD_BASE_ADDR + 0x40)
  514 00000000 20098048 
                       SD_FIFOCNT
                               EQU              (SD_BASE_ADDR + 0x48)
  515 00000000         
  516 00000000 20098080 
                       SD_FIFO EQU              (SD_BASE_ADDR + 0x80)
  517 00000000         
  518 00000000 40080000 
                       UART3_BASE_ADDR
                               EQU              0x40080000
  519 00000000 40080000 
                       U3RBR   EQU              (UART3_BASE_ADDR + 0x00)
  520 00000000 40080000 
                       U3THR   EQU              (UART3_BASE_ADDR + 0x00)
  521 00000000 40080000 
                       U3DLL   EQU              (UART3_BASE_ADDR + 0x00)
  522 00000000 40080004 
                       U3DLM   EQU              (UART3_BASE_ADDR + 0x04)
  523 00000000 40080004 
                       U3IER   EQU              (UART3_BASE_ADDR + 0x04)
  524 00000000 40080008 
                       U3IIR   EQU              (UART3_BASE_ADDR + 0x08)
  525 00000000 40080008 
                       U3FCR   EQU              (UART3_BASE_ADDR + 0x08)
  526 00000000 4008000C 
                       U3LCR   EQU              (UART3_BASE_ADDR + 0x0C)
  527 00000000 40080014 
                       U3LSR   EQU              (UART3_BASE_ADDR + 0x14)
  528 00000000 4008001C 
                       U3RXLEV EQU              (UART3_BASE_ADDR + 0x1C)
  529 00000000         
  530 00000000 40088000 
                       UART4_BASE_ADDR
                               EQU              0x40088000
  531 00000000 40088000 
                       U4RBR   EQU              (UART4_BASE_ADDR + 0x00)
  532 00000000 40088000 
                       U4THR   EQU              (UART4_BASE_ADDR + 0x00)
  533 00000000 40088000 
                       U4DLL   EQU              (UART4_BASE_ADDR + 0x00)
  534 00000000 40088004 
                       U4DLM   EQU              (UART4_BASE_ADDR + 0x04)



ARM Macro Assembler    Page 25 


  535 00000000 40088004 
                       U4IER   EQU              (UART4_BASE_ADDR + 0x04)
  536 00000000 40088008 
                       U4IIR   EQU              (UART4_BASE_ADDR + 0x08)
  537 00000000 40088008 
                       U4FCR   EQU              (UART4_BASE_ADDR + 0x08)
  538 00000000 4008800C 
                       U4LCR   EQU              (UART4_BASE_ADDR + 0x0C)
  539 00000000 40088014 
                       U4LSR   EQU              (UART4_BASE_ADDR + 0x14)
  540 00000000 4008801C 
                       U4RXLEV EQU              (UART4_BASE_ADDR + 0x1C)
  541 00000000         
  542 00000000 40090000 
                       UART5_BASE_ADDR
                               EQU              0x40090000
  543 00000000 40090000 
                       U5RBR   EQU              (UART5_BASE_ADDR + 0x00)
  544 00000000 40090000 
                       U5THR   EQU              (UART5_BASE_ADDR + 0x00)
  545 00000000 40090000 
                       U5DLL   EQU              (UART5_BASE_ADDR + 0x00)
  546 00000000 40090004 
                       U5DLM   EQU              (UART5_BASE_ADDR + 0x04)
  547 00000000 40090004 
                       U5IER   EQU              (UART5_BASE_ADDR + 0x04)
  548 00000000 40090008 
                       U5IIR   EQU              (UART5_BASE_ADDR + 0x08)
  549 00000000 40090008 
                       U5FCR   EQU              (UART5_BASE_ADDR + 0x08)
  550 00000000 4009000C 
                       U5LCR   EQU              (UART5_BASE_ADDR + 0x0C)
  551 00000000 40090014 
                       U5LSR   EQU              (UART5_BASE_ADDR + 0x14)
  552 00000000 4009001C 
                       U5RXLEV EQU              (UART5_BASE_ADDR + 0x1C)
  553 00000000         
  554 00000000 40098000 
                       UART6_BASE_ADDR
                               EQU              0x40098000
  555 00000000 40098000 
                       U6RBR   EQU              (UART6_BASE_ADDR + 0x00)
  556 00000000 40098000 
                       U6THR   EQU              (UART6_BASE_ADDR + 0x00)
  557 00000000 40098000 
                       U6DLL   EQU              (UART6_BASE_ADDR + 0x00)
  558 00000000 40098004 
                       U6DLM   EQU              (UART6_BASE_ADDR + 0x04)
  559 00000000 40098004 
                       U6IER   EQU              (UART6_BASE_ADDR + 0x04)
  560 00000000 40098008 
                       U6IIR   EQU              (UART6_BASE_ADDR + 0x08)
  561 00000000 40098008 
                       U6FCR   EQU              (UART6_BASE_ADDR + 0x08)
  562 00000000 4009800C 
                       U6LCR   EQU              (UART6_BASE_ADDR + 0x0C)
  563 00000000 40098014 
                       U6LSR   EQU              (UART6_BASE_ADDR + 0x14)
  564 00000000 4009801C 



ARM Macro Assembler    Page 26 


                       U6RXLEV EQU              (UART6_BASE_ADDR + 0x1C)
  565 00000000         
  566 00000000 40004000 
                       UART_CLK_BASE_ADDR
                               EQU              0x40004000
  567 00000000 400040D0 
                       U3CLK   EQU              (UART_CLK_BASE_ADDR + 0xD0)
  568 00000000 400040D4 
                       U4CLK   EQU              (UART_CLK_BASE_ADDR + 0xD4)
  569 00000000 400040D8 
                       U5CLK   EQU              (UART_CLK_BASE_ADDR + 0xD8)
  570 00000000 400040DC 
                       U6CLK   EQU              (UART_CLK_BASE_ADDR + 0xDC)
  571 00000000 400040E0 
                       IRDACLK EQU              (UART_CLK_BASE_ADDR + 0xE0)
  572 00000000         
  573 00000000 40054000 
                       UART_CTRL_BASE_ADDR
                               EQU              0x40054000
  574 00000000 40054000 
                       UART_CTRL
                               EQU              (UART_CTRL_BASE_ADDR + 0x00)
  575 00000000 40054004 
                       UART_CLKMODE
                               EQU              (UART_CTRL_BASE_ADDR + 0x04)
  576 00000000 40054008 
                       UART_LOOP
                               EQU              (UART_CTRL_BASE_ADDR + 0x08)
  577 00000000         
  578 00000000 40014000 
                       HS_UART1_BASE_ADDR
                               EQU              0x40014000
  579 00000000 40014000 
                       HSU1_RX EQU              (HS_UART1_BASE_ADDR + 0x00)
  580 00000000 40014000 
                       HSU1_TX EQU              (HS_UART1_BASE_ADDR + 0x00)
  581 00000000 40014004 
                       HSU1_LEVEL
                               EQU              (HS_UART1_BASE_ADDR + 0x04)
  582 00000000 40014008 
                       HSU1_IIR
                               EQU              (HS_UART1_BASE_ADDR + 0x08)
  583 00000000 4001400C 
                       HSU1_CTRL
                               EQU              (HS_UART1_BASE_ADDR + 0x0C)
  584 00000000 40014010 
                       HSU1_RATE
                               EQU              (HS_UART1_BASE_ADDR + 0x10)
  585 00000000         
  586 00000000 40018000 
                       HS_UART2_BASE_ADDR
                               EQU              0x40018000
  587 00000000 40018000 
                       HSU2_RX EQU              (HS_UART2_BASE_ADDR + 0x00)
  588 00000000 40018000 
                       HSU2_TX EQU              (HS_UART2_BASE_ADDR + 0x00)
  589 00000000 40018004 
                       HSU2_LEVEL
                               EQU              (HS_UART2_BASE_ADDR + 0x04)



ARM Macro Assembler    Page 27 


  590 00000000 40018008 
                       HSU2_IIR
                               EQU              (HS_UART2_BASE_ADDR + 0x08)
  591 00000000 4001800C 
                       HSU2_CTRL
                               EQU              (HS_UART2_BASE_ADDR + 0x0C)
  592 00000000 40018010 
                       HSU2_RATE
                               EQU              (HS_UART2_BASE_ADDR + 0x10)
  593 00000000         
  594 00000000 4001C000 
                       HS_UART7_BASE_ADDR
                               EQU              0x4001C000
  595 00000000 4001C000 
                       HSU7_RX EQU              (HS_UART7_BASE_ADDR + 0x00)
  596 00000000 4001C000 
                       HSU7_TX EQU              (HS_UART7_BASE_ADDR + 0x00)
  597 00000000 4001C004 
                       HSU7_LEVEL
                               EQU              (HS_UART7_BASE_ADDR + 0x04)
  598 00000000 4001C008 
                       HSU7_IIR
                               EQU              (HS_UART7_BASE_ADDR + 0x08)
  599 00000000 4001C00C 
                       HSU7_CTRL
                               EQU              (HS_UART7_BASE_ADDR + 0x0C)
  600 00000000 4001C010 
                       HSU7_RATE
                               EQU              (HS_UART7_BASE_ADDR + 0x10)
  601 00000000         
  602 00000000 20088000 
                       SPI1_BASE_ADDR
                               EQU              0x20088000
  603 00000000 20088000 
                       SPI1_GLOBAL
                               EQU              (SPI1_BASE_ADDR + 0x000)
  604 00000000 20088004 
                       SPI1_CON
                               EQU              (SPI1_BASE_ADDR + 0x004)
  605 00000000 20088008 
                       SPI1_FRM
                               EQU              (SPI1_BASE_ADDR + 0x008)
  606 00000000 2008800C 
                       SPI1_IER
                               EQU              (SPI1_BASE_ADDR + 0x00C)
  607 00000000 20088010 
                       SPI1_STAT
                               EQU              (SPI1_BASE_ADDR + 0x010)
  608 00000000 20088014 
                       SPI1_DAT
                               EQU              (SPI1_BASE_ADDR + 0x014)
  609 00000000 20088400 
                       SPI1_TIM_CTRL
                               EQU              (SPI1_BASE_ADDR + 0x400)
  610 00000000 20088404 
                       SPI1_TIM_COUNT
                               EQU              (SPI1_BASE_ADDR + 0x404)
  611 00000000 20088408 
                       SPI1_TIM_STAT



ARM Macro Assembler    Page 28 


                               EQU              (SPI1_BASE_ADDR + 0x408)
  612 00000000         
  613 00000000 20090000 
                       SPI2_BASE_ADDR
                               EQU              0x20090000
  614 00000000 20090000 
                       SPI2_GLOBAL
                               EQU              (SPI2_BASE_ADDR + 0x000)
  615 00000000 20090004 
                       SPI2_CON
                               EQU              (SPI2_BASE_ADDR + 0x004)
  616 00000000 20090008 
                       SPI2_FRM
                               EQU              (SPI2_BASE_ADDR + 0x008)
  617 00000000 2009000C 
                       SPI2_IER
                               EQU              (SPI2_BASE_ADDR + 0x00C)
  618 00000000 20090010 
                       SPI2_STAT
                               EQU              (SPI2_BASE_ADDR + 0x010)
  619 00000000 20090014 
                       SPI2_DAT
                               EQU              (SPI2_BASE_ADDR + 0x014)
  620 00000000 20090400 
                       SPI2_TIM_CTRL
                               EQU              (SPI2_BASE_ADDR + 0x400)
  621 00000000 20090404 
                       SPI2_TIM_COUNT
                               EQU              (SPI2_BASE_ADDR + 0x404)
  622 00000000 20090408 
                       SPI2_TIM_STAT
                               EQU              (SPI2_BASE_ADDR + 0x408)
  623 00000000         
  624 00000000 20084000 
                       SSP0_BASE_ADDR
                               EQU              0x20084000
  625 00000000 20084000 
                       SSP0CR0 EQU              (SSP0_BASE_ADDR + 0x000)
  626 00000000 20084004 
                       SSP0CR1 EQU              (SSP0_BASE_ADDR + 0x004)
  627 00000000 20084008 
                       SSP0DR  EQU              (SSP0_BASE_ADDR + 0x008)
  628 00000000 2008400C 
                       SSP0SR  EQU              (SSP0_BASE_ADDR + 0x00C)
  629 00000000 20084010 
                       SSP0CPSR
                               EQU              (SSP0_BASE_ADDR + 0x010)
  630 00000000 20084014 
                       SSP0IMSC
                               EQU              (SSP0_BASE_ADDR + 0x014)
  631 00000000 20084018 
                       SSP0RIS EQU              (SSP0_BASE_ADDR + 0x018)
  632 00000000 2008401C 
                       SSP0MIS EQU              (SSP0_BASE_ADDR + 0x01C)
  633 00000000 20084020 
                       SSP0ICR EQU              (SSP0_BASE_ADDR + 0x020)
  634 00000000 20084024 
                       SSP0DMACR
                               EQU              (SSP0_BASE_ADDR + 0x024)



ARM Macro Assembler    Page 29 


  635 00000000         
  636 00000000 2008C000 
                       SSP1_BASE_ADDR
                               EQU              0x2008C000
  637 00000000 2008C000 
                       SSP1CR0 EQU              (SSP1_BASE_ADDR + 0x000)
  638 00000000 2008C004 
                       SSP1CR1 EQU              (SSP1_BASE_ADDR + 0x004)
  639 00000000 2008C008 
                       SSP1DR  EQU              (SSP1_BASE_ADDR + 0x008)
  640 00000000 2008C00C 
                       SSP1SR  EQU              (SSP1_BASE_ADDR + 0x00C)
  641 00000000 2008C010 
                       SSP1CPSR
                               EQU              (SSP1_BASE_ADDR + 0x010)
  642 00000000 2008C014 
                       SSP1IMSC
                               EQU              (SSP1_BASE_ADDR + 0x014)
  643 00000000 2008C018 
                       SSP1RIS EQU              (SSP1_BASE_ADDR + 0x018)
  644 00000000 2008C01C 
                       SSP1MIS EQU              (SSP1_BASE_ADDR + 0x01C)
  645 00000000 2008C020 
                       SSP1ICR EQU              (SSP1_BASE_ADDR + 0x020)
  646 00000000 2008C024 
                       SSP1DMACR
                               EQU              (SSP1_BASE_ADDR + 0x024)
  647 00000000         
  648 00000000 400A0000 
                       I2C1_BASE_ADDR
                               EQU              0x400A0000
  649 00000000 400A0000 
                       I2C1_RX EQU              (I2C1_BASE_ADDR + 0x00)
  650 00000000 400A0000 
                       I2C1_TX EQU              (I2C1_BASE_ADDR + 0x00)
  651 00000000 400A0004 
                       I2C1_STAT
                               EQU              (I2C1_BASE_ADDR + 0x04)
  652 00000000 400A0008 
                       I2C1_CTRL
                               EQU              (I2C1_BASE_ADDR + 0x08)
  653 00000000 400A000C 
                       I2C1_CLKHI
                               EQU              (I2C1_BASE_ADDR + 0x0C)
  654 00000000 400A0010 
                       I2C1_CLKLO
                               EQU              (I2C1_BASE_ADDR + 0x10)
  655 00000000 400A0014 
                       I2C1_ADR
                               EQU              (I2C1_BASE_ADDR + 0x14)
  656 00000000 400A0018 
                       I2C1_RXFL
                               EQU              (I2C1_BASE_ADDR + 0x18)
  657 00000000 400A001C 
                       I2C1_TXFL
                               EQU              (I2C1_BASE_ADDR + 0x1C)
  658 00000000 400A0020 
                       I2C1_RXB
                               EQU              (I2C1_BASE_ADDR + 0x20)



ARM Macro Assembler    Page 30 


  659 00000000 400A0024 
                       I2C1_TXB
                               EQU              (I2C1_BASE_ADDR + 0x24)
  660 00000000 400A0028 
                       I2C1_S_TX
                               EQU              (I2C1_BASE_ADDR + 0x28)
  661 00000000 400A002C 
                       I2C1_S_TXFL
                               EQU              (I2C1_BASE_ADDR + 0x2C)
  662 00000000         
  663 00000000 400A8000 
                       I2C2_BASE_ADDR
                               EQU              0x400A8000
  664 00000000 400A8000 
                       I2C2_RX EQU              (I2C2_BASE_ADDR + 0x00)
  665 00000000 400A8000 
                       I2C2_TX EQU              (I2C2_BASE_ADDR + 0x00)
  666 00000000 400A8004 
                       I2C2_STAT
                               EQU              (I2C2_BASE_ADDR + 0x04)
  667 00000000 400A8008 
                       I2C2_CTRL
                               EQU              (I2C2_BASE_ADDR + 0x08)
  668 00000000 400A800C 
                       I2C2_CLKHI
                               EQU              (I2C2_BASE_ADDR + 0x0C)
  669 00000000 400A8010 
                       I2C2_CLKLO
                               EQU              (I2C2_BASE_ADDR + 0x10)
  670 00000000 400A8014 
                       I2C2_ADR
                               EQU              (I2C2_BASE_ADDR + 0x14)
  671 00000000 400A8018 
                       I2C2_RXFL
                               EQU              (I2C2_BASE_ADDR + 0x18)
  672 00000000 400A801C 
                       I2C2_TXFL
                               EQU              (I2C2_BASE_ADDR + 0x1C)
  673 00000000 400A8020 
                       I2C2_RXB
                               EQU              (I2C2_BASE_ADDR + 0x20)
  674 00000000 400A8024 
                       I2C2_TXB
                               EQU              (I2C2_BASE_ADDR + 0x24)
  675 00000000 400A8028 
                       I2C2_S_TX
                               EQU              (I2C2_BASE_ADDR + 0x28)
  676 00000000 400A802C 
                       I2C2_S_TXFL
                               EQU              (I2C2_BASE_ADDR + 0x2C)
  677 00000000         
  678 00000000 20094000 
                       I2S0_BASE_ADDR
                               EQU              0x20094000
  679 00000000 2009C000 
                       I2S0DAO EQU              (I2S1_BASE_ADDR + 0x00)
  680 00000000 2009C004 
                       I2S0DAI EQU              (I2S1_BASE_ADDR + 0x04)
  681 00000000 2009C008 



ARM Macro Assembler    Page 31 


                       I2S0TXFIFO
                               EQU              (I2S1_BASE_ADDR + 0x08)
  682 00000000 2009C00C 
                       I2S0RXFIFO
                               EQU              (I2S1_BASE_ADDR + 0x0C)
  683 00000000 2009C010 
                       I2S0STATE
                               EQU              (I2S1_BASE_ADDR + 0x10)
  684 00000000 2009C014 
                       I2S0DMA0
                               EQU              (I2S1_BASE_ADDR + 0x14)
  685 00000000 2009C018 
                       I2S0DMA1
                               EQU              (I2S1_BASE_ADDR + 0x18)
  686 00000000 2009C01C 
                       I2S0IRQ EQU              (I2S1_BASE_ADDR + 0x1C)
  687 00000000 2009C020 
                       I2S0TXRATE
                               EQU              (I2S1_BASE_ADDR + 0x20)
  688 00000000 2009C024 
                       I2S0RXRATE
                               EQU              (I2S1_BASE_ADDR + 0x24)
  689 00000000         
  690 00000000 2009C000 
                       I2S1_BASE_ADDR
                               EQU              0x2009C000
  691 00000000 2009C000 
                       I2S1DAO EQU              (I2S1_BASE_ADDR + 0x00)
  692 00000000 2009C004 
                       I2S1DAI EQU              (I2S1_BASE_ADDR + 0x04)
  693 00000000 2009C008 
                       I2S1TXFIFO
                               EQU              (I2S1_BASE_ADDR + 0x08)
  694 00000000 2009C00C 
                       I2S1RXFIFO
                               EQU              (I2S1_BASE_ADDR + 0x0C)
  695 00000000 2009C010 
                       I2S1STATE
                               EQU              (I2S1_BASE_ADDR + 0x10)
  696 00000000 2009C014 
                       I2S1DMA0
                               EQU              (I2S1_BASE_ADDR + 0x14)
  697 00000000 2009C018 
                       I2S1DMA1
                               EQU              (I2S1_BASE_ADDR + 0x18)
  698 00000000 2009C01C 
                       I2S1IRQ EQU              (I2S1_BASE_ADDR + 0x1C)
  699 00000000 2009C020 
                       I2S1TXRATE
                               EQU              (I2S1_BASE_ADDR + 0x20)
  700 00000000 2009C024 
                       I2S1RXRATE
                               EQU              (I2S1_BASE_ADDR + 0x24)
  701 00000000         
  702 00000000 40044000 
                       TIMER0_BASE_ADDR
                               EQU              0x40044000
  703 00000000 40044000 
                       T0IR    EQU              (TIMER0_BASE_ADDR + 0x000)



ARM Macro Assembler    Page 32 


  704 00000000 40044004 
                       T0TCR   EQU              (TIMER0_BASE_ADDR + 0x004)
  705 00000000 40044008 
                       T0TC    EQU              (TIMER0_BASE_ADDR + 0x008)
  706 00000000 4004400C 
                       T0PR    EQU              (TIMER0_BASE_ADDR + 0x00C)
  707 00000000 40044010 
                       T0PC    EQU              (TIMER0_BASE_ADDR + 0x010)
  708 00000000 40044014 
                       T0MCR   EQU              (TIMER0_BASE_ADDR + 0x014)
  709 00000000 40044018 
                       T0MR0   EQU              (TIMER0_BASE_ADDR + 0x018)
  710 00000000 4004401C 
                       T0MR1   EQU              (TIMER0_BASE_ADDR + 0x01C)
  711 00000000 40044020 
                       T0MR2   EQU              (TIMER0_BASE_ADDR + 0x020)
  712 00000000 40044024 
                       T0MR3   EQU              (TIMER0_BASE_ADDR + 0x024)
  713 00000000 40044028 
                       T0CCR   EQU              (TIMER0_BASE_ADDR + 0x028)
  714 00000000 4004402C 
                       T0CR0   EQU              (TIMER0_BASE_ADDR + 0x02C)
  715 00000000 40044030 
                       T0CR1   EQU              (TIMER0_BASE_ADDR + 0x030)
  716 00000000 40044034 
                       T0CR2   EQU              (TIMER0_BASE_ADDR + 0x034)
  717 00000000 40044038 
                       T0CR3   EQU              (TIMER0_BASE_ADDR + 0x038)
  718 00000000 4004403C 
                       T0EMR   EQU              (TIMER0_BASE_ADDR + 0x03C)
  719 00000000 40044070 
                       T0CTCR  EQU              (TIMER0_BASE_ADDR + 0x070)
  720 00000000         
  721 00000000         
  722 00000000 4004C000 
                       TIMER1_BASE_ADDR
                               EQU              0x4004C000
  723 00000000 4004C000 
                       T1IR    EQU              (TIMER1_BASE_ADDR + 0x000)
  724 00000000 4004C004 
                       T1TCR   EQU              (TIMER1_BASE_ADDR + 0x004)
  725 00000000 4004C008 
                       T1TC    EQU              (TIMER1_BASE_ADDR + 0x008)
  726 00000000 4004C00C 
                       T1PR    EQU              (TIMER1_BASE_ADDR + 0x00C)
  727 00000000 4004C010 
                       T1PC    EQU              (TIMER1_BASE_ADDR + 0x010)
  728 00000000 4004C014 
                       T1MCR   EQU              (TIMER1_BASE_ADDR + 0x014)
  729 00000000 4004C018 
                       T1MR0   EQU              (TIMER1_BASE_ADDR + 0x018)
  730 00000000 4004C01C 
                       T1MR1   EQU              (TIMER1_BASE_ADDR + 0x01C)
  731 00000000 4004C020 
                       T1MR2   EQU              (TIMER1_BASE_ADDR + 0x020)
  732 00000000 4004C024 
                       T1MR3   EQU              (TIMER1_BASE_ADDR + 0x024)
  733 00000000 4004C028 
                       T1CCR   EQU              (TIMER1_BASE_ADDR + 0x028)



ARM Macro Assembler    Page 33 


  734 00000000 4004C02C 
                       T1CR0   EQU              (TIMER1_BASE_ADDR + 0x02C)
  735 00000000 4004C030 
                       T1CR1   EQU              (TIMER1_BASE_ADDR + 0x030)
  736 00000000 4004C034 
                       T1CR2   EQU              (TIMER1_BASE_ADDR + 0x034)
  737 00000000 4004C038 
                       T1CR3   EQU              (TIMER1_BASE_ADDR + 0x038)
  738 00000000 4004C03C 
                       T1EMR   EQU              (TIMER1_BASE_ADDR + 0x03C)
  739 00000000 4004C070 
                       T1CTCR  EQU              (TIMER1_BASE_ADDR + 0x070)
  740 00000000         
  741 00000000 40058000 
                       TIMER2_BASE_ADDR
                               EQU              0x40058000
  742 00000000 40058000 
                       T2IR    EQU              (TIMER2_BASE_ADDR + 0x000)
  743 00000000 40058004 
                       T2TCR   EQU              (TIMER2_BASE_ADDR + 0x004)
  744 00000000 40058008 
                       T2TC    EQU              (TIMER2_BASE_ADDR + 0x008)
  745 00000000 4005800C 
                       T2PR    EQU              (TIMER2_BASE_ADDR + 0x00C)
  746 00000000 40058010 
                       T2PC    EQU              (TIMER2_BASE_ADDR + 0x010)
  747 00000000 40058014 
                       T2MCR   EQU              (TIMER2_BASE_ADDR + 0x014)
  748 00000000 40058018 
                       T2MR0   EQU              (TIMER2_BASE_ADDR + 0x018)
  749 00000000 4005801C 
                       T2MR1   EQU              (TIMER2_BASE_ADDR + 0x01C)
  750 00000000 40058020 
                       T2MR2   EQU              (TIMER2_BASE_ADDR + 0x020)
  751 00000000 40058024 
                       T2MR3   EQU              (TIMER2_BASE_ADDR + 0x024)
  752 00000000 40058028 
                       T2CCR   EQU              (TIMER2_BASE_ADDR + 0x028)
  753 00000000 4005802C 
                       T2CR0   EQU              (TIMER2_BASE_ADDR + 0x02C)
  754 00000000 40058030 
                       T2CR1   EQU              (TIMER2_BASE_ADDR + 0x030)
  755 00000000 40058034 
                       T2CR2   EQU              (TIMER2_BASE_ADDR + 0x034)
  756 00000000 40058038 
                       T2CR3   EQU              (TIMER2_BASE_ADDR + 0x038)
  757 00000000 4005803C 
                       T2EMR   EQU              (TIMER2_BASE_ADDR + 0x03C)
  758 00000000 40058070 
                       T2CTCR  EQU              (TIMER2_BASE_ADDR + 0x070)
  759 00000000         
  760 00000000 40060000 
                       TIMER3_BASE_ADDR
                               EQU              0x40060000
  761 00000000 40060000 
                       T3IR    EQU              (TIMER3_BASE_ADDR + 0x000)
  762 00000000 40060004 
                       T3TCR   EQU              (TIMER3_BASE_ADDR + 0x004)
  763 00000000 40060008 



ARM Macro Assembler    Page 34 


                       T3TC    EQU              (TIMER3_BASE_ADDR + 0x008)
  764 00000000 4006000C 
                       T3PR    EQU              (TIMER3_BASE_ADDR + 0x00C)
  765 00000000 40060010 
                       T3PC    EQU              (TIMER3_BASE_ADDR + 0x010)
  766 00000000 40060014 
                       T3MCR   EQU              (TIMER3_BASE_ADDR + 0x014)
  767 00000000 40060018 
                       T3MR0   EQU              (TIMER3_BASE_ADDR + 0x018)
  768 00000000 4006001C 
                       T3MR1   EQU              (TIMER3_BASE_ADDR + 0x01C)
  769 00000000 40060020 
                       T3MR2   EQU              (TIMER3_BASE_ADDR + 0x020)
  770 00000000 40060024 
                       T3MR3   EQU              (TIMER3_BASE_ADDR + 0x024)
  771 00000000 40060028 
                       T3CCR   EQU              (TIMER3_BASE_ADDR + 0x028)
  772 00000000 4006002C 
                       T3CR0   EQU              (TIMER3_BASE_ADDR + 0x02C)
  773 00000000 40060030 
                       T3CR1   EQU              (TIMER3_BASE_ADDR + 0x030)
  774 00000000 40060034 
                       T3CR2   EQU              (TIMER3_BASE_ADDR + 0x034)
  775 00000000 40060038 
                       T3CR3   EQU              (TIMER3_BASE_ADDR + 0x038)
  776 00000000 4006003C 
                       T3EMR   EQU              (TIMER3_BASE_ADDR + 0x03C)
  777 00000000 40060070 
                       T3CTCR  EQU              (TIMER3_BASE_ADDR + 0x070)
  778 00000000         
  779 00000000 40038000 
                       HSTIM_BASE_ADDR
                               EQU              0x40038000
  780 00000000 40038000 
                       HSTIM_INT
                               EQU              (HSTIM_BASE_ADDR + 0x00)
  781 00000000 40038004 
                       HSTIM_CTRL
                               EQU              (HSTIM_BASE_ADDR + 0x04)
  782 00000000 40038008 
                       HSTIM_COUNTER
                               EQU              (HSTIM_BASE_ADDR + 0x08)
  783 00000000 4003800C 
                       HSTIM_PMATCH
                               EQU              (HSTIM_BASE_ADDR + 0x0C)
  784 00000000 40038010 
                       HSTIM_PCOUNT
                               EQU              (HSTIM_BASE_ADDR + 0x10)
  785 00000000 40038014 
                       HSTIM_MCTRL
                               EQU              (HSTIM_BASE_ADDR + 0x14)
  786 00000000 40038018 
                       HSTIM_MATCH0
                               EQU              (HSTIM_BASE_ADDR + 0x18)
  787 00000000 4003801C 
                       HSTIM_MATCH1
                               EQU              (HSTIM_BASE_ADDR + 0x1C)
  788 00000000 40038020 
                       HSTIM_MATCH2



ARM Macro Assembler    Page 35 


                               EQU              (HSTIM_BASE_ADDR + 0x20)
  789 00000000 40038028 
                       HSTIM_CCR
                               EQU              (HSTIM_BASE_ADDR + 0x28)
  790 00000000 4003802C 
                       HSTIM_CR0
                               EQU              (HSTIM_BASE_ADDR + 0x2C)
  791 00000000 40038030 
                       HSTIM_CR1
                               EQU              (HSTIM_BASE_ADDR + 0x30)
  792 00000000         
  793 00000000 40034000 
                       MSTIM_BASE_ADDR
                               EQU              0x40034000
  794 00000000 40034000 
                       MSTIM_INT
                               EQU              (MSTIM_BASE_ADDR + 0x00)
  795 00000000 40034004 
                       MSTIM_CTRL
                               EQU              (MSTIM_BASE_ADDR + 0x04)
  796 00000000 40034008 
                       MSTIM_COUNTER
                               EQU              (MSTIM_BASE_ADDR + 0x08)
  797 00000000 40034014 
                       MSTIM_MCTRL
                               EQU              (MSTIM_BASE_ADDR + 0x14)
  798 00000000 40034018 
                       MSTIM_MATCH0
                               EQU              (MSTIM_BASE_ADDR + 0x18)
  799 00000000 4003401C 
                       MSTIM_MATCH1
                               EQU              (MSTIM_BASE_ADDR + 0x1C)
  800 00000000         
  801 00000000 40024000 
                       RTC_BASE_ADDR
                               EQU              0x40024000
  802 00000000 40024000 
                       RTC_UCOUNT
                               EQU              (RTC_BASE_ADDR + 0x00)
  803 00000000 40024004 
                       RTC_DCOUNT
                               EQU              (RTC_BASE_ADDR + 0x04)
  804 00000000 40024008 
                       RTC_MATCH0
                               EQU              (RTC_BASE_ADDR + 0x08)
  805 00000000 4002400C 
                       RTC_MATCH1
                               EQU              (RTC_BASE_ADDR + 0x0C)
  806 00000000 40024010 
                       RTC_CTRL
                               EQU              (RTC_BASE_ADDR + 0x10)
  807 00000000 40024014 
                       RTC_INTSTAT
                               EQU              (RTC_BASE_ADDR + 0x14)
  808 00000000 40024018 
                       RTC_KEY EQU              (RTC_BASE_ADDR + 0x18)
  809 00000000 40024080 
                       RTC_SRAM
                               EQU              (RTC_BASE_ADDR + 0x80)



ARM Macro Assembler    Page 36 


  810 00000000         
  811 00000000 4003C000 
                       WDTIM_BASE_ADDR
                               EQU              0x4003C000
  812 00000000 4003C000 
                       WDTIM_INT
                               EQU              (WDTIM_BASE_ADDR + 0x00)
  813 00000000 4003C004 
                       WDTIM_CTRL
                               EQU              (WDTIM_BASE_ADDR + 0x04)
  814 00000000 4003C008 
                       WDTIM_COUNTER
                               EQU              (WDTIM_BASE_ADDR + 0x08)
  815 00000000 4003C00C 
                       WDTIM_MCTRL
                               EQU              (WDTIM_BASE_ADDR + 0x0C)
  816 00000000 4003C010 
                       WDTIM_MATCH0
                               EQU              (WDTIM_BASE_ADDR + 0x10)
  817 00000000 4003C014 
                       WDTIM_EMR
                               EQU              (WDTIM_BASE_ADDR + 0x14)
  818 00000000 4003C018 
                       WDTIM_PULSE
                               EQU              (WDTIM_BASE_ADDR + 0x18)
  819 00000000 4003C01C 
                       WDTIM_RES
                               EQU              (WDTIM_BASE_ADDR + 0x1C)
  820 00000000         
  821 00000000 400E8000 
                       MOTOR_BASE_ADDR
                               EQU              0x400E8000
  822 00000000 400E8000 
                       MCCON   EQU              (MOTOR_BASE_ADDR + 0x00)
  823 00000000 400E8004 
                       MCCON_SET
                               EQU              (MOTOR_BASE_ADDR + 0x04)
  824 00000000 400E8008 
                       MCCON_CLR
                               EQU              (MOTOR_BASE_ADDR + 0x08)
  825 00000000 400E800C 
                       MCCAPCON
                               EQU              (MOTOR_BASE_ADDR + 0x0C)
  826 00000000 400E8010 
                       MCCAPCON_SET
                               EQU              (MOTOR_BASE_ADDR + 0x10)
  827 00000000 400E8014 
                       MCCAPCON_CLR
                               EQU              (MOTOR_BASE_ADDR + 0x14)
  828 00000000 400E8018 
                       MCTC0   EQU              (MOTOR_BASE_ADDR + 0x18)
  829 00000000 400E801C 
                       MCTC1   EQU              (MOTOR_BASE_ADDR + 0x1C)
  830 00000000 400E8020 
                       MCTC2   EQU              (MOTOR_BASE_ADDR + 0x20)
  831 00000000 400E8024 
                       MCLIM0  EQU              (MOTOR_BASE_ADDR + 0x24)
  832 00000000 400E8028 
                       MCLIM1  EQU              (MOTOR_BASE_ADDR + 0x28)



ARM Macro Assembler    Page 37 


  833 00000000 400E802C 
                       MCLIM2  EQU              (MOTOR_BASE_ADDR + 0x2C)
  834 00000000 400E8030 
                       MCMAT0  EQU              (MOTOR_BASE_ADDR + 0x30)
  835 00000000 400E8034 
                       MCMAT1  EQU              (MOTOR_BASE_ADDR + 0x34)
  836 00000000 400E8038 
                       MCMAT2  EQU              (MOTOR_BASE_ADDR + 0x38)
  837 00000000 400E803C 
                       MCDT    EQU              (MOTOR_BASE_ADDR + 0x3C)
  838 00000000 400E8040 
                       MCCP    EQU              (MOTOR_BASE_ADDR + 0x40)
  839 00000000 400E8044 
                       MCCAP0  EQU              (MOTOR_BASE_ADDR + 0x44)
  840 00000000 400E8048 
                       MCCAP1  EQU              (MOTOR_BASE_ADDR + 0x48)
  841 00000000 400E804C 
                       MCCAP2  EQU              (MOTOR_BASE_ADDR + 0x4C)
  842 00000000 400E8050 
                       MCINTEN EQU              (MOTOR_BASE_ADDR + 0x50)
  843 00000000 400E8054 
                       MCINTEN_SET
                               EQU              (MOTOR_BASE_ADDR + 0x54)
  844 00000000 400E8058 
                       MCINTEN_CLR
                               EQU              (MOTOR_BASE_ADDR + 0x58)
  845 00000000 400E8068 
                       MCINTFLAG
                               EQU              (MOTOR_BASE_ADDR + 0x68)
  846 00000000 400E806C 
                       MCINTFLAG_SET
                               EQU              (MOTOR_BASE_ADDR + 0x6C)
  847 00000000 400E8070 
                       MCINTFLAG_CLR
                               EQU              (MOTOR_BASE_ADDR + 0x70)
  848 00000000 400E8074 
                       MCCAP_CLR
                               EQU              (MOTOR_BASE_ADDR + 0x74)
  849 00000000         
  850 00000000 4005C000 
                       PWM_BASE_ADDR
                               EQU              0x4005C000
  851 00000000 4005C000 
                       PWM1_CTRL
                               EQU              (PWM_BASE_ADDR + 0x00)
  852 00000000 4005C004 
                       PWM2_CTRL
                               EQU              (PWM_BASE_ADDR + 0x04)
  853 00000000         
  854 00000000 40028000 
                       MUX_BASE_ADDR
                               EQU              0x40028000
  855 00000000 40028100 
                       P_MUX_SET
                               EQU              (MUX_BASE_ADDR + 0x100)
  856 00000000 40028104 
                       P_MUX_CLR
                               EQU              (MUX_BASE_ADDR + 0x104)
  857 00000000 40028108 



ARM Macro Assembler    Page 38 


                       P_MUX_STATE
                               EQU              (MUX_BASE_ADDR + 0x108)
  858 00000000 40028120 
                       P0_MUX_SET
                               EQU              (MUX_BASE_ADDR + 0x120)
  859 00000000 40028124 
                       P0_MUX_CLR
                               EQU              (MUX_BASE_ADDR + 0x124)
  860 00000000 40028128 
                       P0_MUX_STATE
                               EQU              (MUX_BASE_ADDR + 0x128)
  861 00000000 40028130 
                       P1_MUX_SET
                               EQU              (MUX_BASE_ADDR + 0x130)
  862 00000000 40028134 
                       P1_MUX_CLR
                               EQU              (MUX_BASE_ADDR + 0x134)
  863 00000000 40028138 
                       P1_MUX_STATE
                               EQU              (MUX_BASE_ADDR + 0x138)
  864 00000000 40028028 
                       P2_MUX_SET
                               EQU              (MUX_BASE_ADDR + 0x028)
  865 00000000 4002802C 
                       P2_MUX_CLR
                               EQU              (MUX_BASE_ADDR + 0x02C)
  866 00000000 40028030 
                       P2_MUX_STATE
                               EQU              (MUX_BASE_ADDR + 0x030)
  867 00000000 40028110 
                       P3_MUX_SET
                               EQU              (MUX_BASE_ADDR + 0x110)
  868 00000000 40028114 
                       P3_MUX_CLR
                               EQU              (MUX_BASE_ADDR + 0x114)
  869 00000000 40028118 
                       P3_MUX_STATE
                               EQU              (MUX_BASE_ADDR + 0x118)
  870 00000000         
  871 00000000 40028040 
                       P0_BASE_ADDR
                               EQU              0x40028040
  872 00000000 40028040 
                       P0_INP_STATE
                               EQU              (P0_BASE_ADDR + 0x00)
  873 00000000 40028044 
                       P0_OUTP_SET
                               EQU              (P0_BASE_ADDR + 0x04)
  874 00000000 40028048 
                       P0_OUTP_CLR
                               EQU              (P0_BASE_ADDR + 0x08)
  875 00000000 4002804C 
                       P0_OUTP_STATE
                               EQU              (P0_BASE_ADDR + 0x0C)
  876 00000000 40028050 
                       P0_DIR_SET
                               EQU              (P0_BASE_ADDR + 0x10)
  877 00000000 40028054 
                       P0_DIR_CLR



ARM Macro Assembler    Page 39 


                               EQU              (P0_BASE_ADDR + 0x14)
  878 00000000 40028058 
                       P0_DIR_STATE
                               EQU              (P0_BASE_ADDR + 0x18)
  879 00000000         
  880 00000000 40028060 
                       P1_BASE_ADDR
                               EQU              0x40028060
  881 00000000 40028060 
                       P1_INP_STATE
                               EQU              (P1_BASE_ADDR + 0x00)
  882 00000000 40028064 
                       P1_OUTP_SET
                               EQU              (P1_BASE_ADDR + 0x04)
  883 00000000 40028068 
                       P1_OUTP_CLR
                               EQU              (P1_BASE_ADDR + 0x08)
  884 00000000 4002806C 
                       P1_OUTP_STATE
                               EQU              (P1_BASE_ADDR + 0x0C)
  885 00000000 40028070 
                       P1_DIR_SET
                               EQU              (P1_BASE_ADDR + 0x10)
  886 00000000 40028074 
                       P1_DIR_CLR
                               EQU              (P1_BASE_ADDR + 0x14)
  887 00000000 40028078 
                       P1_DIR_STATE
                               EQU              (P1_BASE_ADDR + 0x18)
  888 00000000         
  889 00000000 40028010 
                       P2_BASE_ADDR
                               EQU              0x40028010
  890 00000000 4002801C 
                       P2_INP_STATE
                               EQU              (P2_BASE_ADDR + 0x0C)
  891 00000000 40028020 
                       P2_OUTP_SET
                               EQU              (P2_BASE_ADDR + 0x10)
  892 00000000 40028024 
                       P2_OUTP_CLR
                               EQU              (P2_BASE_ADDR + 0x14)
  893 00000000 40028010 
                       P2_DIR_SET
                               EQU              (P2_BASE_ADDR + 0x00)
  894 00000000 40028014 
                       P2_DIR_CLR
                               EQU              (P2_BASE_ADDR + 0x04)
  895 00000000 40028018 
                       P2_DIR_STATE
                               EQU              (P2_BASE_ADDR + 0x08)
  896 00000000         
  897 00000000 40028000 
                       P3_BASE_ADDR
                               EQU              0x40028000
  898 00000000 40028000 
                       P3_INP_STATE
                               EQU              (P3_BASE_ADDR + 0x00)
  899 00000000 40028004 



ARM Macro Assembler    Page 40 


                       P3_OUTP_SET
                               EQU              (P3_BASE_ADDR + 0x04)
  900 00000000 40028008 
                       P3_OUTP_CLR
                               EQU              (P3_BASE_ADDR + 0x08)
  901 00000000 4002800C 
                       P3_OUTP_STATE
                               EQU              (P3_BASE_ADDR + 0x0C)
  902 00000000         
  903 00000000         ;/******************************************************
                       **************************************************
  904 00000000         ;    Define firmware Functions
  905 00000000         ;*******************************************************
                       *************************************************/
  906 00000000         
  907 00000000 7FFFFF91 
                       rm_init_entry
                               EQU              0x7fffff91
  908 00000000 7FFFFFA0 
                       rm_undef_handler
                               EQU              0x7fffffa0
  909 00000000 7FFFFFB0 
                       rm_prefetchabort_handler
                               EQU              0x7fffffb0
  910 00000000 7FFFFFC0 
                       rm_dataabort_handler
                               EQU              0x7fffffc0
  911 00000000 7FFFFFD0 
                       rm_irqhandler
                               EQU              0x7fffffd0
  912 00000000 7FFFFFE0 
                       rm_irqhandler2
                               EQU              0x7fffffe0
  913 00000000 7FFFFFF1 
                       iap_entry
                               EQU              0x7ffffff1
  914 00000000         
  915 00000000                 END
   24 00000000         
   25 00000000         ;/******************************************************
                       **************************************************
   26 00000000         ; 宏定义
   27 00000000         ;*******************************************************
                       *************************************************/
   28 00000000         
   29 00000000 00000080 
                       NoInt   EQU              0x80
   30 00000000 00000040 
                       NoFIQ   EQU              0x40
   31 00000000 00000013 
                       SVC32Mode
                               EQU              0x13
   32 00000000 0000001F 
                       SYS32Mode
                               EQU              0x1f
   33 00000000 00000012 
                       IRQ32Mode
                               EQU              0x12
   34 00000000 00000060 



ARM Macro Assembler    Page 41 


                       VIC_STACK_LEGTH
                               EQU              0x60        ; VIC中断服务向量表
                                                            堆栈大小
   35 00000000         
   36 00000000                 IMPORT           FIQ_Exception
   37 00000000                 IMPORT           OSIntCtxSw  ;任务切换函数
   38 00000000                 IMPORT           OSIntExit   ;中断退出函数
   39 00000000                 IMPORT           OSTCBCur
   40 00000000                 IMPORT           OSTCBHighRdy
   41 00000000                 IMPORT           OSIntNesting ;中断嵌套计数器 
   42 00000000                 IMPORT           OsEnterSum
   43 00000000         
   44 00000000                 EXPORT           vicInitial
   45 00000000                 EXPORT           IRQ_Handler
   46 00000000                 EXPORT           FIQ_Handler
   47 00000000                 EXPORT           vicControl
   48 00000000         
   49 00000000                 CODE32
   50 00000000                 PRESERVE8
   51 00000000                 AREA             |RUNFIRST|, CODE, READONLY
   52 00000000         
   53 00000000         ;/******************************************************
                       **************************************************
   54 00000000         ;** Function name:           vicInitial
   55 00000000         ;** Descriptions:            VIC管理初始化
   56 00000000         ;** input parameters:        none
   57 00000000         ;** output parameters:       none
   58 00000000         ;** Returned value:          none
   59 00000000         ;** Created by:              LinEnqiang
   60 00000000         ;** Created Date:            2008-12-12
   61 00000000         ;**-----------------------------------------------------
                       --------------------------------------------------
   62 00000000         ;** Modified by:
   63 00000000         ;** Modified date:
   64 00000000         ;**-----------------------------------------------------
                       --------------------------------------------------
   65 00000000         ;*******************************************************
                       *************************************************/
   66 00000000         vicInitial
   67 00000000 E92D07FF        STMFD            SP!, {r0-r10}
   68 00000004         
   69 00000004 E59F2B0C        LDR              R2, =MIC_ER
   70 00000008 E3A03003        MOV              R3, #3
   71 0000000C E1833F03        ORR              R3, R3, R3, LSL #30
   72 00000010 E5823000        STR              R3, [R2]
   73 00000014         
   74 00000014         
   75 00000014 E3A03000        MOV              R3, #0
   76 00000018 E59F2AFC        LDR              R2, =MIC_APR
   77 0000001C E5823000        STR              R3, [R2]
   78 00000020 E59F2AF8        LDR              R2, =MIC_ATR
   79 00000024 E5823000        STR              R3, [R2]
   80 00000028         
   81 00000028 E59F2AF4        LDR              R2, =SIC1_ER
   82 0000002C E5823000        STR              R3, [R2]
   83 00000030 E59F2AF0        LDR              R2, =SIC1_ITR
   84 00000034 E5823000        STR              R3, [R2]
   85 00000038 E59F2AEC        LDR              R2, =SIC1_APR
   86 0000003C E5823000        STR              R3, [R2]



ARM Macro Assembler    Page 42 


   87 00000040 E59F2AE8        LDR              R2, =SIC1_ATR
   88 00000044 E5823000        STR              R3, [R2]
   89 00000048         
   90 00000048 E59F2AE4        LDR              R2, =SIC2_ER
   91 0000004C E5823000        STR              R3, [R2]
   92 00000050 E59F2AE0        LDR              R2, =SIC2_ITR
   93 00000054 E5823000        STR              R3, [R2]
   94 00000058 E59F2ADC        LDR              R2, =SIC2_APR
   95 0000005C E5823000        STR              R3, [R2]
   96 00000060 E59F2AD8        LDR              R2, =SIC2_ATR
   97 00000064 E5823000        STR              R3, [R2]
   98 00000068         
   99 00000068 E3A0C060        LDR              R12,=VIC_STACK_LEGTH
  100 0000006C E1A0C2AC        MOV              R12,R12, LSR #5
  101 00000070 E59F0ACC        LDR              R0, =VectStackSpace
  102 00000074         
  103 00000074 E3A01000        MOV              R1, #0
  104 00000078 E3A02000        MOV              R2, #0
  105 0000007C E3A03000        MOV              R3, #0
  106 00000080 E3A04000        MOV              R4, #0
  107 00000084 E3A05000        MOV              R5, #0
  108 00000088 E3A06000        MOV              R6, #0
  109 0000008C E3A07000        MOV              R7, #0
  110 00000090 E3A08000        MOV              R8, #0
  111 00000094         0
  112 00000094 E35C0000        CMP              R12,#0
  113 00000098 9A000005        BLS              %F1
  114 0000009C         
  115 0000009C E8A001FE        STMIA            R0!, {R1-R8}
  116 000000A0 E8A001FE        STMIA            R0!, {R1-R8}
  117 000000A4 E8A001FE        STMIA            R0!, {R1-R8}
  118 000000A8 E8A001FE        STMIA            R0!, {R1-R8}
  119 000000AC         
  120 000000AC E24CC001        SUB              R12,R12,#1
  121 000000B0 EAFFFFF7        B                %B0
  122 000000B4         1
  123 000000B4 E59F0A88        LDR              R0, =VectStackSpace
  124 000000B8 E59F1A88        LDR              R1, =IRQ_SCI1_Func
  125 000000BC E59F2A88        LDR              R2, =IRQ_SCI2_Func
  126 000000C0 E8A00006        STMIA            R0!, {R1-R2}
  127 000000C4         
  128 000000C4 E8BD07FF        LDMFD            SP!, {r0-r10}
  129 000000C8 E12FFF1E        BX               LR
  130 000000CC         
  131 000000CC         ;/******************************************************
                       **************************************************
  132 000000CC         ;** Function name:           FIQ_Handler
  133 000000CC         ;** Descriptions:            FIQ 中断处理
  134 000000CC         ;** input parameters:        none
  135 000000CC         ;** output parameters:       none
  136 000000CC         ;** Returned value:          none
  137 000000CC         ;** Created by:              LinEnqiang
  138 000000CC         ;** Created Date:            2008-12-12
  139 000000CC         ;**-----------------------------------------------------
                       --------------------------------------------------
  140 000000CC         ;** Modified by:
  141 000000CC         ;** Modified date:
  142 000000CC         ;**-----------------------------------------------------
                       --------------------------------------------------



ARM Macro Assembler    Page 43 


  143 000000CC         ;*******************************************************
                       *************************************************/
  144 000000CC         FIQ_Handler
  145 000000CC E92D400F        STMFD            SP!, {R0-R3, LR}
  146 000000D0 E59F0A7C        LDR              R0, =FIQ_Exception 
                                                            ; FIQ中断处理
  147 000000D4 E28FE001        ADD              LR, PC, #1
  148 000000D8 E12FFF10        BX               R0
  149 000000DC                 CODE16
  150 000000DC 4778            BX               PC
  151 000000DE 46C0            NOP
  152 000000E0                 CODE32
  153 000000E0 E8BD400F        LDMFD            SP!, {R0-R3, LR}
  154 000000E4 E25EF004        SUBS             PC,  LR,  #4
  155 000000E8         
  156 000000E8         ;/******************************************************
                       **************************************************
  157 000000E8         ;** Function name:           IRQ_SCI1_Func
  158 000000E8         ;** Descriptions:            中断处理函数
  159 000000E8         ;** input parameters:        none
  160 000000E8         ;** output parameters:       none
  161 000000E8         ;** Returned value:          none
  162 000000E8         ;** Created by:              LinEnqiang
  163 000000E8         ;** Created Date:            2008-12-12
  164 000000E8         ;**-----------------------------------------------------
                       --------------------------------------------------
  165 000000E8         ;** Modified by:
  166 000000E8         ;** Modified date:
  167 000000E8         ;**-----------------------------------------------------
                       --------------------------------------------------
  168 000000E8         ;*******************************************************
                       *************************************************/
  169 000000E8         IRQ_SCI1_Func
  170 000000E8 E92D4070        STMFD            SP!, {R4-R6, LR}
  171 000000EC E59F4A50        LDR              R4, =VectStackSpace
  172 000000F0 E3A00001        MOV              R0, #1
  173 000000F4 E0844380        ADD              R4, R4, R0, LSL #7
  174 000000F8         0
  175 000000F8 E59F2A5C        LDR              R2, =SIC1_SR
  176 000000FC E5922000        LDR              R2, [R2]
  177 00000100 E3520000        CMP              R2, #0
  178 00000104 08BD8070        LDMEQFD          SP!, {R4-R6, PC}
  179 00000108         
  180 00000108 E3A0501F        MOV              R5, #31
  181 0000010C E3A06001        MOV              R6, #1
  182 00000110         1
  183 00000110 E3550000        CMP              R5, #0
  184 00000114 BAFFFFF7        BLT              %B0
  185 00000118         
  186 00000118 E59F2A3C        LDR              R2, =SIC1_SR
  187 0000011C E5922000        LDR              R2, [R2]
  188 00000120 E1120516        TST              R2, R6, LSL R5
  189 00000124 02455001        SUBEQ            R5, R5,#1
  190 00000128 0AFFFFF8        BEQ              %B1
  191 0000012C         
  192 0000012C E59F2A2C        LDR              R2, =SIC1_RSR
  193 00000130 E1A01516        MOV              R1, R6, LSL R5
  194 00000134 E5821000        STR              R1, [R2]
  195 00000138         



ARM Macro Assembler    Page 44 


  196 00000138 E7940105        LDR              R0, [R4, R5, LSL #2]
  197 0000013C E2455001        SUB              R5, R5,#1
  198 00000140 E3500000        CMP              R0, #0
  199 00000144 0AFFFFF1        BEQ              %B1
  200 00000148         
  201 00000148 E28FE001        ADD              LR, PC, #1
  202 0000014C E12FFF10        BX               R0
  203 00000150                 CODE16
  204 00000150 4778            BX               PC
  205 00000152 46C0            NOP
  206 00000154                 CODE32
  207 00000154 EAFFFFED        B                %B1
  208 00000158 E8BD8070        LDMFD            SP!, {R4-R6, PC}
  209 0000015C         
  210 0000015C         ;/******************************************************
                       **************************************************
  211 0000015C         ;** Function name:           IRQ_SCI2_Func
  212 0000015C         ;** Descriptions:            中断处理函数
  213 0000015C         ;** input parameters:        none
  214 0000015C         ;** output parameters:       none
  215 0000015C         ;** Returned value:          none
  216 0000015C         ;** Created by:              LinEnqiang
  217 0000015C         ;** Created Date:            2008-12-12
  218 0000015C         ;**-----------------------------------------------------
                       --------------------------------------------------
  219 0000015C         ;** Modified by:
  220 0000015C         ;** Modified date:
  221 0000015C         ;**-----------------------------------------------------
                       --------------------------------------------------
  222 0000015C         ;*******************************************************
                       *************************************************/
  223 0000015C         IRQ_SCI2_Func
  224 0000015C E92D4070        STMFD            SP!, {R4-R6, LR}
  225 00000160 E59F49DC        LDR              R4, =VectStackSpace
  226 00000164 E3A00002        MOV              R0, #2
  227 00000168 E0844380        ADD              R4, R4, R0,LSL #7
  228 0000016C         0
  229 0000016C E59F29F4        LDR              R2, =SIC2_SR
  230 00000170 E5922000        LDR              R2, [R2]
  231 00000174 E3520000        CMP              R2, #0
  232 00000178 08BD8070        LDMEQFD          SP!, {R4-R6, PC}
  233 0000017C         
  234 0000017C E3A0501F        MOV              R5, #31
  235 00000180 E3A06001        MOV              R6, #1
  236 00000184         1
  237 00000184 E3550000        CMP              R5, #0
  238 00000188 BAFFFFF7        BLT              %B0
  239 0000018C         
  240 0000018C E59F29D4        LDR              R2, =SIC2_SR
  241 00000190 E5922000        LDR              R2, [R2]
  242 00000194 E1120516        TST              R2, R6, LSL R5
  243 00000198 02455001        SUBEQ            R5, R5,#1
  244 0000019C 0AFFFFF8        BEQ              %B1
  245 000001A0         
  246 000001A0 E59F29C4        LDR              R2, =SIC2_RSR
  247 000001A4 E1A01516        MOV              R1, R6, LSL R5
  248 000001A8 E5821000        STR              R1, [R2]
  249 000001AC         
  250 000001AC E7940105        LDR              R0, [R4, R5, LSL #2]



ARM Macro Assembler    Page 45 


  251 000001B0 E2455001        SUB              R5, R5,#1
  252 000001B4 E3500000        CMP              R0, #0
  253 000001B8 0AFFFFF1        BEQ              %B1
  254 000001BC         
  255 000001BC E28FE001        ADD              LR, PC, #1
  256 000001C0 E12FFF10        BX               R0
  257 000001C4                 CODE16
  258 000001C4 4778            BX               PC
  259 000001C6 46C0            NOP
  260 000001C8                 CODE32
  261 000001C8 EAFFFFED        B                %B1
  262 000001CC E8BD8070        LDMFD            SP!, {R4-R6, PC}
  263 000001D0         
  264 000001D0         ;/******************************************************
                       **************************************************
  265 000001D0         ;** Function name:           IRQ_Handler
  266 000001D0         ;** Descriptions:            中断处理函数
  267 000001D0         ;** input parameters:        none
  268 000001D0         ;** output parameters:       none
  269 000001D0         ;** Returned value:          none
  270 000001D0         ;** Created by:              LinEnqiang
  271 000001D0         ;** Created Date:            2008-12-12
  272 000001D0         ;**-----------------------------------------------------
                       --------------------------------------------------
  273 000001D0         ;** Modified by:
  274 000001D0         ;** Modified date:
  275 000001D0         ;**-----------------------------------------------------
                       --------------------------------------------------
  276 000001D0         ;*******************************************************
                       *************************************************/
  277 000001D0         IRQ_Handler
  278 000001D0 E24EE004        SUB              LR, LR, #4  ;  计算返回地址
  279 000001D4 E92D500F        STMFD            SP!, {R0-R3, R12, LR} 
                                                            ;  保存任务环境
  280 000001D8 E14F3000        MRS              R3, SPSR    ;  保存状态
  281 000001DC E94D4008        STMFD            SP, {R3,LR}^ ;  保存SPSR和用户
                                                            刺的SP,           
                                                                               
                                                                               
                                                                 
  282 000001E0         
  283 000001E0         ;
  284 000001E0 E59F2988        LDR              R2,  =OSIntNesting 
                                                            ; OSIntNesting++
  285 000001E4 E5D21000        LDRB             R1, [R2]
  286 000001E8 E2811001        ADD              R1, R1, #1
  287 000001EC E5C21000        STRB             R1, [R2]
  288 000001F0         ;
  289 000001F0         
  290 000001F0 E1A00000        NOP
  291 000001F4 E24DD008        SUB              SP, SP, #4*2
  292 000001F8         
  293 000001F8 E321F09F        MSR              CPSR_c, #(NoInt :OR: SYS32Mode)
 
                                                            ;  切换到系统模式 
  294 000001FC         
  295 000001FC E92D0070        STMFD            SP!, {R4-R6}
  296 00000200 E59F493C        LDR              R4, =VectStackSpace
  297 00000204         0



ARM Macro Assembler    Page 46 


  298 00000204 E59F296C        LDR              R2, =MIC_SR
  299 00000208 E5922000        LDR              R2, [R2]
  300 0000020C E3520000        CMP              R2, #0
  301 00000210 0A000016        BEQ              %F2
  302 00000214         
  303 00000214 E3A0501D        MOV              R5, #29
  304 00000218 E3A06001        MOV              R6, #1
  305 0000021C         
  306 0000021C E3E00003        MVN              R0, #3
  307 00000220 E1120000        TST              R2, R0
  308 00000224 03A05001        MOVEQ            R5, #1
  309 00000228         1
  310 00000228 E3550000        CMP              R5, #0
  311 0000022C BAFFFFF4        BLT              %B0
  312 00000230         
  313 00000230 E59F2940        LDR              R2, =MIC_SR
  314 00000234 E5922000        LDR              R2, [R2]
  315 00000238 E1120516        TST              R2, R6, LSL R5
  316 0000023C 02455001        SUBEQ            R5, R5, #1
  317 00000240 0AFFFFF8        BEQ              %B1
  318 00000244         
  319 00000244 E59F2930        LDR              R2, =MIC_RSR
  320 00000248 E1A01516        MOV              R1, R6, LSL R5
  321 0000024C E5821000        STR              R1, [R2]
  322 00000250         
  323 00000250 E7940105        LDR              R0, [R4, R5, LSL #2]
  324 00000254 E2455001        SUB              R5, R5,#1
  325 00000258 E3500000        CMP              R0, #0
  326 0000025C 0AFFFFF1        BEQ              %B1
  327 00000260         
  328 00000260 E28FE001        ADD              LR, PC, #1
  329 00000264 E12FFF10        BX               R0
  330 00000268                 CODE16
  331 00000268 4778            BX               PC
  332 0000026A 46C0            NOP
  333 0000026C                 CODE32
  334 0000026C EAFFFFED        B                %B1
  335 00000270         2
  336 00000270 E8BD0070        LDMFD            SP!, {R4-R6}
  337 00000274         
  338 00000274 E59F2904        LDR              R2, =OsEnterSum ; OsEnterSum,使
                                                            OSIntExit退出时中断
                                                            关闭
  339 00000278 E3A01001        MOV              R1, #1
  340 0000027C E5821000        STR              R1, [R2]
  341 00000280         
  342 00000280 EBFFFFFE        BL               OSIntExit
  343 00000284         
  344 00000284 E59F28F4        LDR              R2, =OsEnterSum ; 因为中断服务
                                                            绦蛞退出，所以OsEn
                                                            terSum=0
  345 00000288 E3A01000        MOV              R1, #0
  346 0000028C E5821000        STR              R1, [R2]
  347 00000290         
  348 00000290 E321F092        MSR              CPSR_c, #(NoInt :OR: IRQ32Mode)
 
                                                            ;  切换回irq模式
  349 00000294 E8DD4008        LDMFD            SP, {R3,LR}^ ;  恢复SPSR和用户
                                                            刺的SP            



ARM Macro Assembler    Page 47 


                                                                               
                                                                               
                                                              
  350 00000298 E16FF003        MSR              SPSR_cxsf, R3
  351 0000029C E28DD008        ADD              SP, SP, #4*2
  352 000002A0         
  353 000002A0 E59F08DC        LDR              R0, =OSTCBHighRdy
  354 000002A4 E5900000        LDR              R0, [R0]
  355 000002A8 E59F18D8        LDR              R1, =OSTCBCur
  356 000002AC E5911000        LDR              R1, [R1]
  357 000002B0 E1500001        CMP              R0, R1
  358 000002B4         
  359 000002B4 08FD900F        LDMEQFD          SP!, {R0-R3, R12, PC}^ 
                                                            ; 不进行任务切换
  360 000002B8 E59FF8CC        LDR              PC, =OSIntCtxSw ; 进行任务切换
  361 000002BC         
  362 000002BC         ;/******************************************************
                       **************************************************
  363 000002BC         ;** Function name:           vicControl
  364 000002BC         ;** Descriptions:            软件中断，用于提供VIC管理服
                       务
  365 000002BC         ;** input parameters:        依功能而定
  366 000002BC         ;** output parameters:       依功能而定
  367 000002BC         ;** Returned value:          依功能而定
  368 000002BC         ;** Created by:              LinEnqiang
  369 000002BC         ;** Created Date:            2008/04/30
  370 000002BC         ;**-----------------------------------------------------
                       --------------------------------------------------
  371 000002BC         ;** Modified by:
  372 000002BC         ;** Modified date:
  373 000002BC         ;**-----------------------------------------------------
                       --------------------------------------------------
  374 000002BC         ;*******************************************************
                       *************************************************/
  375 000002BC         vicControl
  376 000002BC E2400C01        SUB              R0, R0, #0x100
  377 000002C0 E3500012        CMP              R0, #0x12
  378 000002C4 379FF100        LDRLO            PC, [PC, R0, LSL #2]
  379 000002C8 E1B0F00E        MOVS             PC, LR
  380 000002CC         
  381 000002CC         vicControlFuncAdd
  382 000002CC 00000000        DCD              SetmicIrqFunc ; 0
  383 000002D0 00000000        DCD              ClrmicIrqFunc ; 1
  384 000002D4 00000000        DCD              EnablemicIrq ; 2
  385 000002D8 00000000        DCD              DisablemicIrq ; 3
  386 000002DC 00000000        DCD              SetmicFiq   ; 4
  387 000002E0 00000000        DCD              ClrmicFiq   ; 5 
  388 000002E4         
  389 000002E4 00000000        DCD              Setsic1IrqFunc ; 6 
  390 000002E8 00000000        DCD              Clrsic1IrqFunc ; 7
  391 000002EC 00000000        DCD              Enablesic1Irq ; 8
  392 000002F0 00000000        DCD              Disablesic1Irq ; 9
  393 000002F4 00000000        DCD              Setsic1Fiq  ; 10
  394 000002F8 00000000        DCD              Clrsic1Fiq  ; 11 
  395 000002FC         
  396 000002FC 00000000        DCD              Setsic2IrqFunc ; 12
  397 00000300 00000000        DCD              Clrsic2IrqFunc ; 13
  398 00000304 00000000        DCD              Enablesic2Irq ; 14
  399 00000308 00000000        DCD              Disablesic2Irq ; 15



ARM Macro Assembler    Page 48 


  400 0000030C 00000000        DCD              Setsic2Fiq  ; 16
  401 00000310 00000000        DCD              Clrsic2Fiq  ; 17 
  402 00000314         
  403 00000314         ;/******************************************************
                       ***************************************************
  404 00000314         ;** Function name:           SetmicIrqFunc
  405 00000314         ;** Descriptions:            设置所选外设的中断触发类型
                       ⒅卸戏务函数地址，并使能中断
  406 00000314         ;** input parameters:        R0:         外设对应的中断
                       ǖ篮
  407 00000314         ;**                          R1:         中断触发类型
  408 00000314         ;**                          R2:         中断服务函数地
                       
  409 00000314         ;** output parameters:       none
  410 00000314         ;** Returned value:          1:          成功
  411 00000314         ;**                          0:          失败
  412 00000314         ;** Created by:              LinEnqiang
  413 00000314         ;** Created Date:            2008-12-12
  414 00000314         ;**-----------------------------------------------------
                       --------------------------------------------------
  415 00000314         ;** Modified by:
  416 00000314         ;** Modified date:
  417 00000314         ;**-----------------------------------------------------
                       --------------------------------------------------
  418 00000314         ;*******************************************************
                       **************************************************/
  419 00000314         
  420 00000314         SetmicIrqFunc
  421 00000314 E3510020        CMP              R1, #32     ;  if (通道号 >=32)
                                                             return FALSE
  422 00000318 23A00000        MOVCS            R0, #0
  423 0000031C 21B0F00E        MOVCSS           PC, LR
  424 00000320         
  425 00000320 E3520004        CMP              R2, #4      ;  if (触发类型 >=4
                                                            ) return FALSE
  426 00000324 23A00000        MOVCS            R0, #0
  427 00000328 21B0F00E        MOVCSS           PC, LR
  428 0000032C         
  429 0000032C E3530000        CMP              R3, #0      ;  if (处理函数 ==0
                                                            ) return FALSE
  430 00000330 03A00000        MOVEQ            R0, #0
  431 00000334 01B0F00E        MOVEQS           PC, LR
  432 00000338         
  433 00000338 E321F0DF        MSR              CPSR_c, #(NoFIQ :OR: NoInt :OR:
 SYS32Mode)
  434 0000033C E92D000C        STMFD            SP!, {R2, R3}
  435 00000340 E3A03001        MOV              R3, #1
  436 00000344 E1A03113        MOV              R3, R3, LSL R1
  437 00000348         
  438 00000348 E59F0840        LDR              R0, =MIC_ITR ;  if (Enable) ret
                                                            urn FALSE
  439 0000034C E5902000        LDR              R2, [R0]
  440 00000350 E0122003        ANDS             R2, R2, R3
  441 00000354 1A000002        BNE              SetmicIrqFunc_j
  442 00000358         
  443 00000358 E59F07E4        LDR              R0, =VectStackSpace ;  if (IRQ
                                                            丫使能) return FAL
                                                            SE
  444 0000035C E7902101        LDR              R2, [R0, R1, LSL #2]



ARM Macro Assembler    Page 49 


  445 00000360 E3520000        CMP              R2, #0
  446 00000364         
  447 00000364         SetmicIrqFunc_j
  448 00000364 E8BD000C        LDMFD            SP!, {R2, R3}
  449 00000368 E321F0D3        MSR              CPSR_c, #(NoFIQ :OR: NoInt :OR:
 SVC32Mode)
  450 0000036C 13A00000        MOVNE            R0, #0
  451 00000370 11B0F00E        MOVNES           PC, LR
  452 00000374         
  453 00000374 E7803101        STR              R3, [R0, R1, LSL #2]
  454 00000378         
  455 00000378 E59F079C        LDR              R0, =MIC_APR
  456 0000037C E5903000        LDR              R3, [R0]
  457 00000380 E3A00001        MOV              R0, #1
  458 00000384 E1C33110        BIC              R3, R3, R0,LSL R1
  459 00000388 E3120001        TST              R2, #1
  460 0000038C 11833110        ORRNE            R3, R3, R0,LSL R1
  461 00000390 E59F0784        LDR              R0, =MIC_APR
  462 00000394 E5803000        STR              R3, [R0]
  463 00000398         
  464 00000398 E59F0780        LDR              R0, =MIC_ATR
  465 0000039C E5903000        LDR              R3, [R0]
  466 000003A0 E3A00001        MOV              R0, #1
  467 000003A4 E1C33110        BIC              R3, R3, R0,LSL R1
  468 000003A8 E3120002        TST              R2, #2
  469 000003AC 01833110        ORREQ            R3, R3, R0,LSL R1
  470 000003B0 E59F0768        LDR              R0, =MIC_ATR
  471 000003B4 E5803000        STR              R3, [R0]
  472 000003B8         
  473 000003B8 E59F0758        LDR              R0, =MIC_ER
  474 000003BC E5902000        LDR              R2, [R0]
  475 000003C0 E3A03001        MOV              R3, #1
  476 000003C4 E1822113        ORR              R2, R2, R3,LSL R1
  477 000003C8 E5802000        STR              R2, [R0]
  478 000003CC         
  479 000003CC E3A00001        MOV              R0, #1
  480 000003D0 E1B0F00E        MOVS             PC, LR
  481 000003D4         ;/******************************************************
                       ***************************************************
  482 000003D4         ;** Function name:           ClrmicIrqFunc
  483 000003D4         ;** Descriptions:            清除所选外设的IRQ资源
  484 000003D4         ;** input parameters:        R0:        外设对应的中断通
                       道号
  485 000003D4         ;** output parameters:       none
  486 000003D4         ;** Returned value:          1:         成功
  487 000003D4         ;**                          0:         失败
  488 000003D4         ;** Created by:              LinEnqiang
  489 000003D4         ;** Created Date:            2008-12-12
  490 000003D4         ;**-----------------------------------------------------
                       --------------------------------------------------
  491 000003D4         ;** Modified by:
  492 000003D4         ;** Modified date:
  493 000003D4         ;**-----------------------------------------------------
                       --------------------------------------------------
  494 000003D4         ;*******************************************************
                       **************************************************/
  495 000003D4         ClrmicIrqFunc
  496 000003D4 E3510020        CMP              R1, #32     ;  if (通道号 >=32)
                                                             return FALSE



ARM Macro Assembler    Page 50 


  497 000003D8 23A00000        MOVCS            R0, #0
  498 000003DC 21B0F00E        MOVCSS           PC, LR
  499 000003E0         
  500 000003E0 E59F07A8        LDR              R0, =MIC_ITR ;  if (FIQ) return
                                                             FALSE
  501 000003E4 E5902000        LDR              R2, [R0]
  502 000003E8 E3A03001        MOV              R3, #1
  503 000003EC E1120113        TST              R2, R3, LSL R1
  504 000003F0 13A00000        MOVNE            R0, #0
  505 000003F4 11B0F00E        MOVNES           PC, LR
  506 000003F8         
  507 000003F8 E59F0744        LDR              R0, =VectStackSpace ;  if (IRQ 
                                                            wasnt Set) return F
                                                            ALSE
  508 000003FC E7902101        LDR              R2, [R0, R1, LSL #2]
  509 00000400 E3520000        CMP              R2, #0
  510 00000404 03A00000        MOVEQ            R0, #0
  511 00000408 01B0F00E        MOVEQS           PC, LR
  512 0000040C         
  513 0000040C E321F0D3        MSR              CPSR_c, #(NoFIQ :OR: NoInt :OR:
 SVC32Mode)
  514 00000410 E59F0700        LDR              R0, =MIC_ER ;  Disable IRQ
  515 00000414 E5902000        LDR              R2, [R0]
  516 00000418 E1C22113        BIC              R2, R2, R3,LSL R1
  517 0000041C E5802000        STR              R2, [R0]
  518 00000420         
  519 00000420 E59F071C        LDR              R0, =VectStackSpace ;  Clear Ve
                                                            ctStackSpace
  520 00000424 E3A03000        MOV              R3, #0
  521 00000428 E7803101        STR              R3, [R0, R1, LSL #2]
  522 0000042C E3A00001        MOV              R0, #1
  523 00000430 E1B0F00E        MOVS             PC, LR
  524 00000434         ;/******************************************************
                       ***************************************************
  525 00000434         ;** Function name:           EnablemicIrq
  526 00000434         ;** Descriptions:            使能相应外设的中断
  527 00000434         ;** input parameters:        R0:         外设对应的中断
                       ǖ篮
  528 00000434         ;** output parameters:       none
  529 00000434         ;** Returned value:          1:          成功
  530 00000434         ;**                          0:          失败
  531 00000434         ;** Created by:              LinEnqiang
  532 00000434         ;** Created Date:            2008-12-12
  533 00000434         ;**-----------------------------------------------------
                       --------------------------------------------------
  534 00000434         ;** Modified by:
  535 00000434         ;** Modified date:
  536 00000434         ;**-----------------------------------------------------
                       --------------------------------------------------
  537 00000434         ;*******************************************************
                       **************************************************/
  538 00000434         EnablemicIrq
  539 00000434 E3510020        CMP              R1, #32     ;  if (通道号 >=32)
                                                             return FALSE
  540 00000438 23A00000        MOVCS            R0, #0
  541 0000043C 21B0F00E        MOVCSS           PC, LR
  542 00000440         
  543 00000440 E59F06FC        LDR              R0, =VectStackSpace ;  if (IRQ 
                                                            wasnt Set) return F



ARM Macro Assembler    Page 51 


                                                            ALSE
  544 00000444 E7902101        LDR              R2, [R0, R1, LSL #2]
  545 00000448 E3520000        CMP              R2, #0
  546 0000044C 03A00000        MOVEQ            R0, #0
  547 00000450 01B0F00E        MOVEQS           PC, LR
  548 00000454         
  549 00000454 E321F0D3        MSR              CPSR_c, #(NoFIQ :OR: NoInt :OR:
 SVC32Mode)
  550 00000458 E59F06B8        LDR              R0, =MIC_ER
  551 0000045C E5902000        LDR              R2, [R0]
  552 00000460 E3A03001        MOV              R3, #1
  553 00000464 E1822113        ORR              R2, R2, R3,LSL R1
  554 00000468 E5802000        STR              R2, [R0]
  555 0000046C E3A00001        MOV              R0, #1
  556 00000470 E1B0F00E        MOVS             PC, LR
  557 00000474         
  558 00000474         ;/******************************************************
                       ***************************************************
  559 00000474         ;** Function name:           DisablemicIrq
  560 00000474         ;** Descriptions:            禁止相应外设的中断
  561 00000474         ;** input parameters:        uiChannel:  外设对应的中断
                       ǖ篮
  562 00000474         ;** output parameters:       none
  563 00000474         ;** Returned value:          1:          成功
  564 00000474         ;**                          0:          失败
  565 00000474         ;** Created by:              LinEnqiang
  566 00000474         ;** Created Date:            2008-12-12
  567 00000474         ;**-----------------------------------------------------
                       --------------------------------------------------
  568 00000474         ;** Modified by:
  569 00000474         ;** Modified date:
  570 00000474         ;**-----------------------------------------------------
                       --------------------------------------------------
  571 00000474         ********************************************************
*************************************************/
  572 00000474         DisablemicIrq
  573 00000474 E3510020        CMP              R1, #32     ;  if (通道号 >=32)
                                                             return FALSE
  574 00000478 23A00000        MOVCS            R0, #0
  575 0000047C 21B0F00E        MOVCSS           PC, LR
  576 00000480         
  577 00000480 E59F06BC        LDR              R0, =VectStackSpace ;  if (未加
                                                            载) return FALSE
  578 00000484 E7902101        LDR              R2, [R0, R1, LSL #2]
  579 00000488 E3520000        CMP              R2, #0
  580 0000048C 03A00000        MOVEQ            R0, #0
  581 00000490 01B0F00E        MOVEQS           PC, LR
  582 00000494         
  583 00000494 E321F0D3        MSR              CPSR_c, #(NoFIQ :OR: NoInt :OR:
 SVC32Mode)
  584 00000498         
  585 00000498 E59F0678        LDR              R0, =MIC_ER
  586 0000049C E5902000        LDR              R2, [R0]
  587 000004A0 E3A03001        MOV              R3, #1
  588 000004A4 E1C22113        BIC              R2, R2, R3,LSL R1
  589 000004A8 E5802000        STR              R2, [R0]
  590 000004AC         
  591 000004AC E3A00001        MOV              R0, #1
  592 000004B0 E1B0F00E        MOVS             PC, LR



ARM Macro Assembler    Page 52 


  593 000004B4         ;/******************************************************
                       ***************************************************
  594 000004B4         ;** Function name:           SetmicFiq
  595 000004B4         ;** Descriptions:            设置并使能所选中断通道号为F
                       IQ中断
  596 000004B4         ;** input parameters:        R0:        外设对应的中断通
                       道号
  597 000004B4         ;** output parameters:       none
  598 000004B4         ;** Returned value:          1:          成功
  599 000004B4         ;**                          0:          失败
  600 000004B4         ;** Created by:              LinEnqiang
  601 000004B4         ;** Created Date:            2008-12-12
  602 000004B4         ;**-----------------------------------------------------
                       --------------------------------------------------
  603 000004B4         ;** Modified by:
  604 000004B4         ;** Modified date:
  605 000004B4         ;**-----------------------------------------------------
                       --------------------------------------------------
  606 000004B4         ********************************************************
*************************************************/
  607 000004B4         SetmicFiq
  608 000004B4 E321F0D3        MSR              CPSR_c, #(NoFIQ :OR: NoInt :OR:
 SVC32Mode)
  609 000004B8         
  610 000004B8 E3510020        CMP              R1, #32     ;  if (通道号 >=32)
                                                             return FALSE
  611 000004BC 23A00000        MOVCS            R0, #0
  612 000004C0 21B0F00E        MOVCSS           PC, LR
  613 000004C4         
  614 000004C4 E59F0678        LDR              R0, =VectStackSpace ;  if (IRQ
                                                            鸭釉) return FALSE
                                                            
  615 000004C8 E7903101        LDR              R3, [R0, R1, LSL #2]
  616 000004CC E3530000        CMP              R3, #0
  617 000004D0 13A00000        MOVNE            R0, #0
  618 000004D4 11B0F00E        MOVNES           PC, LR
  619 000004D8         
  620 000004D8 E3520004        CMP              R2, #4      ;  if (触发类型 >=4
                                                            ) return FALSE
  621 000004DC 23A00000        MOVCS            R0, #0
  622 000004E0 21B0F00E        MOVCSS           PC, LR
  623 000004E4         
  624 000004E4 E59F0630        LDR              R0, =MIC_APR
  625 000004E8 E5903000        LDR              R3, [R0]
  626 000004EC E3A00001        MOV              R0, #1
  627 000004F0 E1C33110        BIC              R3, R3, R0,LSL R1
  628 000004F4 E3120001        TST              R2, #1
  629 000004F8 11833110        ORRNE            R3, R3, R0,LSL R1
  630 000004FC E59F0618        LDR              R0, =MIC_APR
  631 00000500 E5803000        STR              R3, [R0]
  632 00000504         
  633 00000504 E59F0614        LDR              R0, =MIC_ATR
  634 00000508 E5903000        LDR              R3, [R0]
  635 0000050C E3A00001        MOV              R0, #1
  636 00000510 E1C33110        BIC              R3, R3, R0,LSL R1
  637 00000514 E3120002        TST              R2, #2
  638 00000518 01833110        ORREQ            R3, R3, R0,LSL R1
  639 0000051C E59F05FC        LDR              R0, =MIC_ATR
  640 00000520 E5803000        STR              R3, [R0]



ARM Macro Assembler    Page 53 


  641 00000524         
  642 00000524 E59F0664        LDR              R0, =MIC_ITR
  643 00000528 E5902000        LDR              R2, [R0]
  644 0000052C E3A03001        MOV              R3, #1
  645 00000530 E1822113        ORR              R2, R2, R3,LSL R1
  646 00000534 E5802000        STR              R2, [R0]
  647 00000538         
  648 00000538 E59F05D8        LDR              R0, =MIC_ER
  649 0000053C E5902000        LDR              R2, [R0]
  650 00000540 E1822113        ORR              R2, R2, R3,LSL R1
  651 00000544 E5802000        STR              R2, [R0]
  652 00000548 E3A00001        MOV              R0, #1
  653 0000054C E1B0F00E        MOVS             PC, LR
  654 00000550         ;/******************************************************
                       ***************************************************
  655 00000550         ;** Function name:           ClrmicFiq
  656 00000550         ;** Descriptions:            清除所选中断通道号的FIQ中断
                       
  657 00000550         ;** input parameters:        R0:         外设对应的中断
                       ǖ篮
  658 00000550         ;** output parameters:       none
  659 00000550         ;** Returned value:          1:          成功
  660 00000550         ;**                          0:          失败;
  661 00000550         ;** Created by:              LinEnqiang
  662 00000550         ;** Created Date:            2008-12-12
  663 00000550         ;**-----------------------------------------------------
                       --------------------------------------------------
  664 00000550         ;** Modified by:
  665 00000550         ;** Modified date:
  666 00000550         ;**-----------------------------------------------------
                       --------------------------------------------------
  667 00000550         ********************************************************
*************************************************/
  668 00000550         
  669 00000550         ClrmicFiq
  670 00000550 E321F0D3        MSR              CPSR_c, #(NoFIQ :OR: NoInt :OR:
 SVC32Mode)
  671 00000554         
  672 00000554 E3510020        CMP              R1, #32     ;  if (通道号 >=32)
                                                             return FALSE
  673 00000558 23A00000        MOVCS            R0, #0
  674 0000055C 21B0F00E        MOVCSS           PC, LR
  675 00000560         
  676 00000560 E59F0628        LDR              R0, =MIC_ITR ;  if(FIQ未使能)re
                                                            turn FALSE
  677 00000564 E5902000        LDR              R2, [R0]
  678 00000568 E3A03001        MOV              R3, #1
  679 0000056C E0123113        ANDS             R3, R2, R3,LSL R1
  680 00000570 03A00000        MOVEQ            R0, #0
  681 00000574 01B0F00E        MOVEQS           PC, LR
  682 00000578         
  683 00000578 E59F0598        LDR              R0, =MIC_ER
  684 0000057C E5902000        LDR              R2, [R0]
  685 00000580 E1C22003        BIC              R2, R2, R3
  686 00000584 E5802000        STR              R2, [R0]    ;  Disable FIQ
  687 00000588         
  688 00000588 E59F0600        LDR              R0, =MIC_ITR
  689 0000058C E5902000        LDR              R2, [R0]
  690 00000590 E1C22003        BIC              R2, R2,R3



ARM Macro Assembler    Page 54 


  691 00000594 E5802000        STR              R2, [R0]
  692 00000598         
  693 00000598 E3A00001        MOV              R0, #1
  694 0000059C E1B0F00E        MOVS             PC, LR
  695 000005A0         
  696 000005A0         ;/******************************************************
                       ***************************************************
  697 000005A0         ;** Function name:           Setsic1IrqFunc
  698 000005A0         ;** Descriptions:            设置所选外设的中断触发类型
                       ⒅卸戏务函数地址，并使能中断
  699 000005A0         ;** input parameters:        R0:         外设对应的中断
                       ǖ篮
  700 000005A0         ;**                          R1:         中断触发类型
  701 000005A0         ;**                          R2:         中断服务函数地
                       
  702 000005A0         ;** output parameters:       none
  703 000005A0         ;** Returned value:          1:          成功
  704 000005A0         ;**                          0:          失败
  705 000005A0         ;** Created by:              LinEnqiang
  706 000005A0         ;** Created Date:            2008-12-12
  707 000005A0         ;**-----------------------------------------------------
                       --------------------------------------------------
  708 000005A0         ;** Modified by:
  709 000005A0         ;** Modified date:
  710 000005A0         ;**-----------------------------------------------------
                       --------------------------------------------------
  711 000005A0         ;*******************************************************
                       **************************************************/
  712 000005A0         Setsic1IrqFunc
  713 000005A0 E3510020        CMP              R1, #32     ;  if (通道号 >=32)
                                                             return FALSE
  714 000005A4 23A00000        MOVCS            R0, #0
  715 000005A8 21B0F00E        MOVCSS           PC, LR
  716 000005AC         
  717 000005AC E3520004        CMP              R2, #4      ;  if (触发类型 >=4
                                                            ) return FALSE
  718 000005B0 23A00000        MOVCS            R0, #0
  719 000005B4 21B0F00E        MOVCSS           PC, LR
  720 000005B8         
  721 000005B8 E3530000        CMP              R3, #0      ;  if (处理函数 ==0
                                                            ) return FALSE
  722 000005BC 03A00000        MOVEQ            R0, #0
  723 000005C0 01B0F00E        MOVEQS           PC, LR
  724 000005C4         
  725 000005C4 E321F0DF        MSR              CPSR_c, #(NoFIQ :OR: NoInt :OR:
 SYS32Mode)
  726 000005C8 E92D000C        STMFD            SP!, {R2, R3}
  727 000005CC E3A03001        MOV              R3, #1
  728 000005D0 E1A03113        MOV              R3, R3, LSL R1
  729 000005D4         
  730 000005D4 E59F054C        LDR              R0, =SIC1_ITR ;  if (Enable) re
                                                            turn FALSE
  731 000005D8 E5902000        LDR              R2, [R0]
  732 000005DC E0122003        ANDS             R2, R2, R3
  733 000005E0 1A000004        BNE              Setsic1IrqFunc_j
  734 000005E4         
  735 000005E4 E59F0558        LDR              R0, =VectStackSpace ;  if (IRQ
                                                            丫使能) return FAL
                                                            SE



ARM Macro Assembler    Page 55 


  736 000005E8 E3A02001        MOV              R2, #1
  737 000005EC E0800382        ADD              R0, R0, R2,LSL #7
  738 000005F0         
  739 000005F0 E7902101        LDR              R2, [R0, R1, LSL #2]
  740 000005F4 E3520000        CMP              R2, #0
  741 000005F8         Setsic1IrqFunc_j
  742 000005F8 E8BD000C        LDMFD            SP!, {R2, R3}
  743 000005FC E321F0D3        MSR              CPSR_c, #(NoFIQ :OR: NoInt :OR:
 SVC32Mode)
  744 00000600 13A00000        MOVNE            R0, #0
  745 00000604 11B0F00E        MOVNES           PC, LR
  746 00000608         
  747 00000608 E7803101        STR              R3, [R0, R1,LSL #2]
  748 0000060C         
  749 0000060C E59F0518        LDR              R0, =SIC1_APR
  750 00000610 E5903000        LDR              R3, [R0]
  751 00000614 E3A00001        MOV              R0, #1
  752 00000618 E1C33110        BIC              R3, R3, R0,LSL R1
  753 0000061C E3120001        TST              R2, #1
  754 00000620 11833110        ORRNE            R3, R3, R0,LSL R1
  755 00000624 E59F0500        LDR              R0, =SIC1_APR
  756 00000628 E5803000        STR              R3, [R0]
  757 0000062C         
  758 0000062C E59F04FC        LDR              R0, =SIC1_ATR
  759 00000630 E5903000        LDR              R3, [R0]
  760 00000634 E3A00001        MOV              R0, #1
  761 00000638 E1C33110        BIC              R3, R3, R0,LSL R1
  762 0000063C E3120002        TST              R2, #2
  763 00000640 01833110        ORREQ            R3, R3, R0,LSL R1
  764 00000644 E59F04E4        LDR              R0, =SIC1_ATR
  765 00000648 E5803000        STR              R3, [R0]
  766 0000064C         
  767 0000064C E59F04D0        LDR              R0, =SIC1_ER
  768 00000650 E5902000        LDR              R2, [R0]
  769 00000654 E3A03001        MOV              R3, #1
  770 00000658 E1822113        ORR              R2, R2, R3,LSL R1
  771 0000065C E5802000        STR              R2, [R0]
  772 00000660         
  773 00000660 E3A00001        MOV              R0, #1
  774 00000664 E1B0F00E        MOVS             PC, LR
  775 00000668         ;/******************************************************
                       ***************************************************
  776 00000668         ;** Function name:           Clrsic1IrqFunc
  777 00000668         ;** Descriptions:            清除所选外设的IRQ资源
  778 00000668         ;** input parameters:        R0:        外设对应的中断通
                       道号
  779 00000668         ;** output parameters:       none
  780 00000668         ;** Returned value:          1:         成功
  781 00000668         ;**                          0:         失败
  782 00000668         ;** Created by:              LinEnqiang
  783 00000668         ;** Created Date:            2008-12-12
  784 00000668         ;**-----------------------------------------------------
                       --------------------------------------------------
  785 00000668         ;** Modified by:
  786 00000668         ;** Modified date:
  787 00000668         ;**-----------------------------------------------------
                       --------------------------------------------------
  788 00000668         ;*******************************************************
                       **************************************************/



ARM Macro Assembler    Page 56 


  789 00000668         Clrsic1IrqFunc
  790 00000668 E3510020        CMP              R1, #32     ;  if (通道号 >=32)
                                                             return FALSE
  791 0000066C 23A00000        MOVCS            R0, #0
  792 00000670 21B0F00E        MOVCSS           PC, LR
  793 00000674         
  794 00000674 E59F04AC        LDR              R0, =SIC1_ITR ;  if (FIQ) retur
                                                            n FALSE
  795 00000678 E5902000        LDR              R2, [R0]
  796 0000067C E3A03001        MOV              R3, #1
  797 00000680 E1120113        TST              R2, R3, LSL R1
  798 00000684 13A00000        MOVNE            R0, #0
  799 00000688 11B0F00E        MOVNES           PC, LR
  800 0000068C         
  801 0000068C E59F04B0        LDR              R0, =VectStackSpace ;  if (IRQ 
                                                            wasnt Set) return F
                                                            ALSE
  802 00000690 E3A02001        MOV              R2, #1
  803 00000694 E0800382        ADD              R0, R0,R2,LSL #7
  804 00000698         
  805 00000698 E7902101        LDR              R2, [R0, R1, LSL #2]
  806 0000069C E3520000        CMP              R2, #0
  807 000006A0 03A00000        MOVEQ            R0, #0
  808 000006A4 01B0F00E        MOVEQS           PC, LR
  809 000006A8         
  810 000006A8 E321F0D3        MSR              CPSR_c, #(NoFIQ :OR: NoInt :OR:
 SVC32Mode)
  811 000006AC E59F0470        LDR              R0, =SIC1_ER ;  Disable IRQ
  812 000006B0 E5902000        LDR              R2, [R0]
  813 000006B4 E1C22113        BIC              R2, R2, R3,LSL R1
  814 000006B8 E5802000        STR              R2, [R0]
  815 000006BC         
  816 000006BC E59F0480        LDR              R0, =VectStackSpace ;  Clear Ve
                                                            ctStackSpace
  817 000006C0 E3A02001        MOV              R2, #1
  818 000006C4 E0800382        ADD              R0, R0, R2,LSL #7
  819 000006C8         
  820 000006C8 E3A03000        MOV              R3, #0
  821 000006CC E7803101        STR              R3, [R0, R1, LSL #2]
  822 000006D0 E3A00001        MOV              R0, #1
  823 000006D4 E1B0F00E        MOVS             PC, LR
  824 000006D8         ;/******************************************************
                       ***************************************************
  825 000006D8         ;** Function name:           Enablesic1Irq
  826 000006D8         ;** Descriptions:            使能相应外设的中断
  827 000006D8         ;** input parameters:        R0:         外设对应的中断
                       ǖ篮
  828 000006D8         ;** output parameters:       none
  829 000006D8         ;** Returned value:          1:          成功
  830 000006D8         ;**                          0:          失败
  831 000006D8         ;** Created by:              LinEnqiang
  832 000006D8         ;** Created Date:            2008-12-12
  833 000006D8         ;**-----------------------------------------------------
                       --------------------------------------------------
  834 000006D8         ;** Modified by:
  835 000006D8         ;** Modified date:
  836 000006D8         ;**-----------------------------------------------------
                       --------------------------------------------------
  837 000006D8         ;*******************************************************



ARM Macro Assembler    Page 57 


                       **************************************************/
  838 000006D8         Enablesic1Irq
  839 000006D8 E3510020        CMP              R1, #32     ;  if (通道号 >=32)
                                                             return FALSE
  840 000006DC 23A00000        MOVCS            R0, #0
  841 000006E0 21B0F00E        MOVCSS           PC, LR
  842 000006E4         
  843 000006E4 E59F0458        LDR              R0, =VectStackSpace ;  if (IRQ 
                                                            wasnt Set) return F
                                                            ALSE
  844 000006E8 E3A02001        MOV              R2, #1
  845 000006EC E0800382        ADD              R0, R0, R2,LSL #7
  846 000006F0         
  847 000006F0 E7902101        LDR              R2, [R0, R1, LSL #2]
  848 000006F4 E3520000        CMP              R2, #0
  849 000006F8 03A00000        MOVEQ            R0, #0
  850 000006FC 01B0F00E        MOVEQS           PC, LR
  851 00000700         
  852 00000700 E321F0D3        MSR              CPSR_c, #(NoFIQ :OR: NoInt :OR:
 SVC32Mode)
  853 00000704 E59F0418        LDR              R0, =SIC1_ER
  854 00000708 E5902000        LDR              R2, [R0]
  855 0000070C E3A03001        MOV              R3, #1
  856 00000710 E1822113        ORR              R2, R2, R3,LSL R1
  857 00000714 E5802000        STR              R2, [R0]
  858 00000718 E3A00001        MOV              R0, #1
  859 0000071C E1B0F00E        MOVS             PC, LR
  860 00000720         
  861 00000720         ;/******************************************************
                       ***************************************************
  862 00000720         ;** Function name:           Disablesic1Irq
  863 00000720         ;** Descriptions:            禁止相应外设的中断
  864 00000720         ;** input parameters:        uiChannel:  外设对应的中断
                       ǖ篮
  865 00000720         ;** output parameters:       none
  866 00000720         ;** Returned value:          1:          成功
  867 00000720         ;**                          0:          失败
  868 00000720         ;** Created by:              LinEnqiang
  869 00000720         ;** Created Date:            2008-12-12
  870 00000720         ;**-----------------------------------------------------
                       --------------------------------------------------
  871 00000720         ;** Modified by:
  872 00000720         ;** Modified date:
  873 00000720         ;**-----------------------------------------------------
                       --------------------------------------------------
  874 00000720         ********************************************************
*************************************************/
  875 00000720         Disablesic1Irq
  876 00000720 E3510020        CMP              R1, #32     ;  if (通道号 >=32)
                                                             return FALSE
  877 00000724 23A00000        MOVCS            R0, #0
  878 00000728 21B0F00E        MOVCSS           PC, LR
  879 0000072C         
  880 0000072C E59F0410        LDR              R0, =VectStackSpace ;  if (未加
                                                            载) return FALSE
  881 00000730 E3A02001        MOV              R2, #1
  882 00000734 E0800382        ADD              R0, R0, R2,LSL #7
  883 00000738         
  884 00000738 E7902101        LDR              R2, [R0, R1,LSL #2]



ARM Macro Assembler    Page 58 


  885 0000073C E3520000        CMP              R2, #0
  886 00000740 03A00000        MOVEQ            R0, #0
  887 00000744 01B0F00E        MOVEQS           PC, LR
  888 00000748         
  889 00000748 E321F0D3        MSR              CPSR_c, #(NoFIQ :OR: NoInt :OR:
 SVC32Mode)
  890 0000074C         
  891 0000074C E59F03D0        LDR              R0, =SIC1_ER
  892 00000750 E5902000        LDR              R2, [R0]
  893 00000754 E3A03001        MOV              R3, #1
  894 00000758 E1C22113        BIC              R2, R2, R3,LSL R1
  895 0000075C E5802000        STR              R2, [R0]
  896 00000760         
  897 00000760 E3A00001        MOV              R0, #1
  898 00000764 E1B0F00E        MOVS             PC, LR
  899 00000768         ;/******************************************************
                       ***************************************************
  900 00000768         ;** Function name:           Setsic1Fiq
  901 00000768         ;** Descriptions:            设置并使能所选中断通道号为F
                       IQ中断
  902 00000768         ;** input parameters:        R0:        外设对应的中断通
                       道号
  903 00000768         ;** output parameters:       none
  904 00000768         ;** Returned value:          1:          成功
  905 00000768         ;**                          0:          失败
  906 00000768         ;** Created by:              LinEnqiang
  907 00000768         ;** Created Date:            2008-12-12
  908 00000768         ;**-----------------------------------------------------
                       --------------------------------------------------
  909 00000768         ;** Modified by:
  910 00000768         ;** Modified date:
  911 00000768         ;**-----------------------------------------------------
                       --------------------------------------------------
  912 00000768         ********************************************************
*************************************************/
  913 00000768         Setsic1Fiq
  914 00000768 E321F0D3        MSR              CPSR_c, #(NoFIQ :OR: NoInt :OR:
 SVC32Mode)
  915 0000076C         
  916 0000076C E3510020        CMP              R1, #32     ;  if (通道号 >=32)
                                                             return FALSE
  917 00000770 23A00000        MOVCS            R0, #0
  918 00000774 21B0F00E        MOVCSS           PC, LR
  919 00000778         
  920 00000778 E59F03C4        LDR              R0, =VectStackSpace ;  if (IRQ
                                                            鸭釉) return FALSE
                                                            
  921 0000077C E3A03001        MOV              R3, #1
  922 00000780 E0800383        ADD              R0, R0,R3,LSL #7
  923 00000784         
  924 00000784 E7903101        LDR              R3, [R0, R1,LSL #2]
  925 00000788 E3530000        CMP              R3, #0
  926 0000078C 13A00000        MOVNE            R0, #0
  927 00000790 11B0F00E        MOVNES           PC, LR
  928 00000794         
  929 00000794 E3520004        CMP              R2, #4      ;  if (触发类型 >=4
                                                            ) return FALSE
  930 00000798 23A00000        MOVCS            R0, #0
  931 0000079C 21B0F00E        MOVCSS           PC, LR



ARM Macro Assembler    Page 59 


  932 000007A0         
  933 000007A0 E59F0384        LDR              R0, =SIC1_APR
  934 000007A4 E5903000        LDR              R3, [R0]
  935 000007A8 E3A00001        MOV              R0, #1
  936 000007AC E1C33110        BIC              R3, R3, R0,LSL R1
  937 000007B0 E3120001        TST              R2, #1
  938 000007B4 11833110        ORRNE            R3, R3, R0,LSL R1
  939 000007B8 E59F036C        LDR              R0, =SIC1_APR
  940 000007BC E5803000        STR              R3, [R0]
  941 000007C0         
  942 000007C0 E59F0368        LDR              R0, =SIC1_ATR
  943 000007C4 E5903000        LDR              R3, [R0]
  944 000007C8 E3A00001        MOV              R0, #1
  945 000007CC E1C33110        BIC              R3, R3, R0,LSL R1
  946 000007D0 E3120002        TST              R2, #2
  947 000007D4 01833110        ORREQ            R3, R3, R0,LSL R1
  948 000007D8 E59F0350        LDR              R0, =SIC1_ATR
  949 000007DC E5803000        STR              R3, [R0]
  950 000007E0         
  951 000007E0 E59F0340        LDR              R0, =SIC1_ITR
  952 000007E4 E5902000        LDR              R2, [R0]
  953 000007E8 E3A03001        MOV              R3, #1
  954 000007EC E1822113        ORR              R2, R2, R3,LSL R1
  955 000007F0 E5802000        STR              R2, [R0]
  956 000007F4         
  957 000007F4 E59F0328        LDR              R0, =SIC1_ER
  958 000007F8 E5902000        LDR              R2, [R0]
  959 000007FC E1822113        ORR              R2, R2, R3,LSL R1
  960 00000800 E5802000        STR              R2, [R0]
  961 00000804 E3A00001        MOV              R0, #1
  962 00000808 E1B0F00E        MOVS             PC, LR
  963 0000080C         ;/******************************************************
                       ***************************************************
  964 0000080C         ;** Function name:           Clrsic1Fiq
  965 0000080C         ;** Descriptions:            清除所选中断通道号的FIQ中断
                       
  966 0000080C         ;** input parameters:        R0:         外设对应的中断
                       ǖ篮
  967 0000080C         ;** output parameters:       none
  968 0000080C         ;** Returned value:          1:          成功
  969 0000080C         ;**                          0:          失败;
  970 0000080C         ;** Created by:              LinEnqiang
  971 0000080C         ;** Created Date:            2008-12-12
  972 0000080C         ;**-----------------------------------------------------
                       --------------------------------------------------
  973 0000080C         ;** Modified by:
  974 0000080C         ;** Modified date:
  975 0000080C         ;**-----------------------------------------------------
                       --------------------------------------------------
  976 0000080C         ********************************************************
*************************************************/
  977 0000080C         
  978 0000080C         Clrsic1Fiq
  979 0000080C E321F0D3        MSR              CPSR_c, #(NoFIQ :OR: NoInt :OR:
 SVC32Mode)
  980 00000810         
  981 00000810 E3510020        CMP              R1, #32     ;  if (通道号 >=32)
                                                             return FALSE
  982 00000814 23A00000        MOVCS            R0, #0



ARM Macro Assembler    Page 60 


  983 00000818 21B0F00E        MOVCSS           PC, LR
  984 0000081C         
  985 0000081C E59F0304        LDR              R0, =SIC1_ITR ;  if(FIQ未使能)r
                                                            eturn FALSE
  986 00000820 E5902000        LDR              R2, [R0]
  987 00000824 E3A03001        MOV              R3, #1
  988 00000828 E0123113        ANDS             R3, R2, R3,LSL R1
  989 0000082C 03A00000        MOVEQ            R0, #0
  990 00000830 01B0F00E        MOVEQS           PC, LR
  991 00000834         
  992 00000834 E59F02E8        LDR              R0, =SIC1_ER
  993 00000838 E5902000        LDR              R2, [R0]
  994 0000083C E1C22003        BIC              R2, R2, R3
  995 00000840 E5802000        STR              R2, [R0]    ;  Disable FIQ
  996 00000844         
  997 00000844 E59F02DC        LDR              R0, =SIC1_ITR
  998 00000848 E5902000        LDR              R2, [R0]
  999 0000084C E1C22003        BIC              R2, R2, R3
 1000 00000850 E5802000        STR              R2, [R0]
 1001 00000854         
 1002 00000854 E3A00001        MOV              R0, #1
 1003 00000858 E1B0F00E        MOVS             PC, LR
 1004 0000085C         
 1005 0000085C         ;/******************************************************
                       ***************************************************
 1006 0000085C         ;** Function name:           Setsic2IrqFunc
 1007 0000085C         ;** Descriptions:            设置所选外设的中断触发类型
                       ⒅卸戏务函数地址，并使能中断
 1008 0000085C         ;** input parameters:        R0:         外设对应的中断
                       ǖ篮
 1009 0000085C         ;**                          R1:         中断触发类型
 1010 0000085C         ;**                          R2:         中断服务函数地
                       
 1011 0000085C         ;** output parameters:       none
 1012 0000085C         ;** Returned value:          1:          成功
 1013 0000085C         ;**                          0:          失败
 1014 0000085C         ;** Created by:              LinEnqiang
 1015 0000085C         ;** Created Date:            2008-12-12
 1016 0000085C         ;**-----------------------------------------------------
                       --------------------------------------------------
 1017 0000085C         ;** Modified by:
 1018 0000085C         ;** Modified date:
 1019 0000085C         ;**-----------------------------------------------------
                       --------------------------------------------------
 1020 0000085C         ;*******************************************************
                       **************************************************/
 1021 0000085C         Setsic2IrqFunc
 1022 0000085C E3510020        CMP              R1, #32     ;  if (通道号 >=32)
                                                             return FALSE
 1023 00000860 23A00000        MOVCS            R0, #0
 1024 00000864 21B0F00E        MOVCSS           PC, LR
 1025 00000868         
 1026 00000868 E3520004        CMP              R2, #4      ;  if (触发类型 >=4
                                                            ) return FALSE
 1027 0000086C 23A00000        MOVCS            R0, #0
 1028 00000870 21B0F00E        MOVCSS           PC, LR
 1029 00000874         
 1030 00000874 E3530000        CMP              R3, #0      ;  if (处理函数 ==0
                                                            ) return FALSE



ARM Macro Assembler    Page 61 


 1031 00000878 03A00000        MOVEQ            R0, #0
 1032 0000087C 01B0F00E        MOVEQS           PC, LR
 1033 00000880         
 1034 00000880 E321F0DF        MSR              CPSR_c, #(NoFIQ :OR: NoInt :OR:
 SYS32Mode)
 1035 00000884 E92D000C        STMFD            SP!, {R2, R3}
 1036 00000888 E3A03001        MOV              R3, #1
 1037 0000088C E1A03113        MOV              R3, R3, LSL R1
 1038 00000890         
 1039 00000890 E59F02A0        LDR              R0, =SIC2_ITR ;  if (Enable) re
                                                            turn FALSE
 1040 00000894 E5902000        LDR              R2, [R0]
 1041 00000898 E0122003        ANDS             R2, R2, R3
 1042 0000089C 1A000004        BNE              Setsic2IrqFunc_j
 1043 000008A0         
 1044 000008A0 E59F029C        LDR              R0, =VectStackSpace ;  if (IRQ
                                                            丫使能) return FAL
                                                            SE
 1045 000008A4 E3A02002        MOV              R2, #2
 1046 000008A8 E0800382        ADD              R0, R0,R2,LSL #7
 1047 000008AC         
 1048 000008AC E7902101        LDR              R2, [R0, R1, LSL #2]
 1049 000008B0 E3520000        CMP              R2, #0
 1050 000008B4         Setsic2IrqFunc_j
 1051 000008B4 E8BD000C        LDMFD            SP!, {R2, R3}
 1052 000008B8 E321F0D3        MSR              CPSR_c, #(NoFIQ :OR: NoInt :OR:
 SVC32Mode)
 1053 000008BC 13A00000        MOVNE            R0, #0
 1054 000008C0 11B0F00E        MOVNES           PC, LR
 1055 000008C4         
 1056 000008C4 E7803101        STR              R3, [R0, R1, LSL #2]
 1057 000008C8         
 1058 000008C8 E59F026C        LDR              R0, =SIC2_APR
 1059 000008CC E5903000        LDR              R3, [R0]
 1060 000008D0 E3A00001        MOV              R0, #1
 1061 000008D4 E1C33110        BIC              R3, R3, R0,LSL R1
 1062 000008D8 E3120001        TST              R2, #1
 1063 000008DC 11833110        ORRNE            R3, R3, R0,LSL R1
 1064 000008E0 E59F0254        LDR              R0, =SIC2_APR
 1065 000008E4 E5803000        STR              R3, [R0]
 1066 000008E8         
 1067 000008E8 E59F0230        LDR              R0, =MIC_ATR
 1068 000008EC E5903000        LDR              R3, [R0]
 1069 000008F0 E3A00001        MOV              R0, #1
 1070 000008F4 E1C33110        BIC              R3, R3, R0,LSL R1
 1071 000008F8 E3120002        TST              R2, #2
 1072 000008FC 01833110        ORREQ            R3, R3, R0,LSL R1
 1073 00000900 E59F0238        LDR              R0, =SIC2_ATR
 1074 00000904 E5803000        STR              R3, [R0]
 1075 00000908         
 1076 00000908 E59F0224        LDR              R0, =SIC2_ER
 1077 0000090C E5902000        LDR              R2, [R0]
 1078 00000910 E3A03001        MOV              R3, #1
 1079 00000914 E1822113        ORR              R2, R2, R3,LSL R1
 1080 00000918 E5802000        STR              R2, [R0]
 1081 0000091C         
 1082 0000091C E3A00001        MOV              R0, #1
 1083 00000920 E1B0F00E        MOVS             PC, LR
 1084 00000924         ;/******************************************************



ARM Macro Assembler    Page 62 


                       ***************************************************
 1085 00000924         ;** Function name:           Clrsic2IrqFunc
 1086 00000924         ;** Descriptions:            清除所选外设的IRQ资源
 1087 00000924         ;** input parameters:        R0:        外设对应的中断通
                       道号
 1088 00000924         ;** output parameters:       none
 1089 00000924         ;** Returned value:          1:         成功
 1090 00000924         ;**                          0:         失败
 1091 00000924         ;** Created by:              LinEnqiang
 1092 00000924         ;** Created Date:            2008-12-12
 1093 00000924         ;**-----------------------------------------------------
                       --------------------------------------------------
 1094 00000924         ;** Modified by:
 1095 00000924         ;** Modified date:
 1096 00000924         ;**-----------------------------------------------------
                       --------------------------------------------------
 1097 00000924         ;*******************************************************
                       **************************************************/
 1098 00000924         Clrsic2IrqFunc
 1099 00000924 E3510020        CMP              R1, #32     ;  if (通道号 >=32)
                                                             return FALSE
 1100 00000928 23A00000        MOVCS            R0, #0
 1101 0000092C 21B0F00E        MOVCSS           PC, LR
 1102 00000930         
 1103 00000930 E59F0200        LDR              R0, =SIC2_ITR ;  if (FIQ) retur
                                                            n FALSE
 1104 00000934 E5902000        LDR              R2, [R0]
 1105 00000938 E3A03001        MOV              R3, #1
 1106 0000093C E1120113        TST              R2, R3, LSL R1
 1107 00000940 13A00000        MOVNE            R0, #0
 1108 00000944 11B0F00E        MOVNES           PC, LR
 1109 00000948         
 1110 00000948 E59F01F4        LDR              R0, =VectStackSpace ;  if (IRQ 
                                                            wasnt Set) return F
                                                            ALSE
 1111 0000094C E3A02002        MOV              R2, #2
 1112 00000950 E0800382        ADD              R0, R0, R2,LSL #7
 1113 00000954         
 1114 00000954 E7902101        LDR              R2, [R0, R1, LSL #2]
 1115 00000958 E3520000        CMP              R2, #0
 1116 0000095C 03A00000        MOVEQ            R0, #0
 1117 00000960 01B0F00E        MOVEQS           PC, LR
 1118 00000964         
 1119 00000964 E321F0D3        MSR              CPSR_c, #(NoFIQ :OR: NoInt :OR:
 SVC32Mode)
 1120 00000968 E59F01C4        LDR              R0, =SIC2_ER ;  Disable IRQ
 1121 0000096C E5902000        LDR              R2, [R0]
 1122 00000970 E1C22113        BIC              R2, R2, R3,LSL R1
 1123 00000974 E5802000        STR              R2, [R0]
 1124 00000978         
 1125 00000978 E59F01C4        LDR              R0, =VectStackSpace ;  Clear Ve
                                                            ctStackSpace
 1126 0000097C E3A02002        MOV              R2, #2
 1127 00000980 E0800382        ADD              R0, R0, R2,LSL #7
 1128 00000984         
 1129 00000984 E3A02000        MOV              R2, #0
 1130 00000988 E7802101        STR              R2, [R0, R1, LSL #2]
 1131 0000098C E3A00001        MOV              R0, #1
 1132 00000990 E1B0F00E        MOVS             PC, LR



ARM Macro Assembler    Page 63 


 1133 00000994         ;/******************************************************
                       ***************************************************
 1134 00000994         ;** Function name:           Enablesic2Irq
 1135 00000994         ;** Descriptions:            使能相应外设的中断
 1136 00000994         ;** input parameters:        R0:         外设对应的中断
                       ǖ篮
 1137 00000994         ;** output parameters:       none
 1138 00000994         ;** Returned value:          1:          成功
 1139 00000994         ;**                          0:          失败
 1140 00000994         ;** Created by:              LinEnqiang
 1141 00000994         ;** Created Date:            2008-12-12
 1142 00000994         ;**-----------------------------------------------------
                       --------------------------------------------------
 1143 00000994         ;** Modified by:
 1144 00000994         ;** Modified date:
 1145 00000994         ;**-----------------------------------------------------
                       --------------------------------------------------
 1146 00000994         ;*******************************************************
                       **************************************************/
 1147 00000994         Enablesic2Irq
 1148 00000994 E3510020        CMP              R1, #32     ;  if (通道号 >=32)
                                                             return FALSE
 1149 00000998 23A00000        MOVCS            R0, #0
 1150 0000099C 21B0F00E        MOVCSS           PC, LR
 1151 000009A0         
 1152 000009A0 E59F019C        LDR              R0, =VectStackSpace ;  if (IRQ 
                                                            wasnt Set) return F
                                                            ALSE
 1153 000009A4 E3A02002        MOV              R2, #2
 1154 000009A8 E0800382        ADD              R0, R0, R2,LSL #7
 1155 000009AC         
 1156 000009AC E7902101        LDR              R2, [R0, R1, LSL #2]
 1157 000009B0 E3520000        CMP              R2, #0
 1158 000009B4 03A00000        MOVEQ            R0, #0
 1159 000009B8 01B0F00E        MOVEQS           PC, LR
 1160 000009BC         
 1161 000009BC E321F0D3        MSR              CPSR_c, #(NoFIQ :OR: NoInt :OR:
 SVC32Mode)
 1162 000009C0 E59F016C        LDR              R0, =SIC2_ER
 1163 000009C4 E5902000        LDR              R2, [R0]
 1164 000009C8 E3A03001        MOV              R3, #1
 1165 000009CC E1822113        ORR              R2, R2, R3,LSL R1
 1166 000009D0 E5802000        STR              R2, [R0]
 1167 000009D4 E3A00001        MOV              R0, #1
 1168 000009D8 E1B0F00E        MOVS             PC, LR
 1169 000009DC         
 1170 000009DC         ;/******************************************************
                       ***************************************************
 1171 000009DC         ;** Function name:           Disablesic2Irq
 1172 000009DC         ;** Descriptions:            禁止相应外设的中断
 1173 000009DC         ;** input parameters:        uiChannel:  外设对应的中断
                       ǖ篮
 1174 000009DC         ;** output parameters:       none
 1175 000009DC         ;** Returned value:          1:          成功
 1176 000009DC         ;**                          0:          失败
 1177 000009DC         ;** Created by:              LinEnqiang
 1178 000009DC         ;** Created Date:            2008-12-12
 1179 000009DC         ;**-----------------------------------------------------
                       --------------------------------------------------



ARM Macro Assembler    Page 64 


 1180 000009DC         ;** Modified by:
 1181 000009DC         ;** Modified date:
 1182 000009DC         ;**-----------------------------------------------------
                       --------------------------------------------------
 1183 000009DC         ********************************************************
*************************************************/
 1184 000009DC         Disablesic2Irq
 1185 000009DC E3510020        CMP              R1, #32     ;  if (通道号 >=32)
                                                             return FALSE
 1186 000009E0 23A00000        MOVCS            R0, #0
 1187 000009E4 21B0F00E        MOVCSS           PC, LR
 1188 000009E8         
 1189 000009E8 E59F0154        LDR              R0, =VectStackSpace ;  if (未加
                                                            载) return FALSE
 1190 000009EC E3A02002        MOV              R2, #2
 1191 000009F0 E0800382        ADD              R0, R0, R2,LSL #7
 1192 000009F4         
 1193 000009F4 E7902101        LDR              R2, [R0, R1, LSL #2]
 1194 000009F8 E3520000        CMP              R2, #0
 1195 000009FC 03A00000        MOVEQ            R0, #0
 1196 00000A00 01B0F00E        MOVEQS           PC, LR
 1197 00000A04         
 1198 00000A04 E321F0D3        MSR              CPSR_c, #(NoFIQ :OR: NoInt :OR:
 SVC32Mode)
 1199 00000A08         
 1200 00000A08 E59F0124        LDR              R0, =SIC2_ER
 1201 00000A0C E5902000        LDR              R2, [R0]
 1202 00000A10 E3A03001        MOV              R3, #1
 1203 00000A14 E1C22113        BIC              R2, R2, R3,LSL R1
 1204 00000A18 E5802000        STR              R2, [R0]
 1205 00000A1C         
 1206 00000A1C E3A00001        MOV              R0, #1
 1207 00000A20 E1B0F00E        MOVS             PC, LR
 1208 00000A24         ;/******************************************************
                       ***************************************************
 1209 00000A24         ;** Function name:           Setsic2Fiq
 1210 00000A24         ;** Descriptions:            设置并使能所选中断通道号为F
                       IQ中断
 1211 00000A24         ;** input parameters:        R0:        外设对应的中断通
                       道号
 1212 00000A24         ;** output parameters:       none
 1213 00000A24         ;** Returned value:          1:          成功
 1214 00000A24         ;**                          0:          失败
 1215 00000A24         ;** Created by:              LinEnqiang
 1216 00000A24         ;** Created Date:            2008-12-12
 1217 00000A24         ;**-----------------------------------------------------
                       --------------------------------------------------
 1218 00000A24         ;** Modified by:
 1219 00000A24         ;** Modified date:
 1220 00000A24         ;**-----------------------------------------------------
                       --------------------------------------------------
 1221 00000A24         ********************************************************
*************************************************/
 1222 00000A24         Setsic2Fiq
 1223 00000A24 E321F0D3        MSR              CPSR_c, #(NoFIQ :OR: NoInt :OR:
 SVC32Mode)
 1224 00000A28         
 1225 00000A28 E3510020        CMP              R1, #32     ;  if (通道号 >=32)
                                                             return FALSE



ARM Macro Assembler    Page 65 


 1226 00000A2C 23A00000        MOVCS            R0, #0
 1227 00000A30 21B0F00E        MOVCSS           PC, LR
 1228 00000A34         
 1229 00000A34 E59F0108        LDR              R0, =VectStackSpace ;  if (IRQ
                                                            鸭釉) return FALSE
                                                            
 1230 00000A38 E3A03002        MOV              R3, #2
 1231 00000A3C E0800383        ADD              R0, R0, R3,LSL #7
 1232 00000A40         
 1233 00000A40 E7903101        LDR              R3, [R0, R1, LSL #2]
 1234 00000A44 E3530000        CMP              R3, #0
 1235 00000A48 13A00000        MOVNE            R0, #0
 1236 00000A4C 11B0F00E        MOVNES           PC, LR
 1237 00000A50         
 1238 00000A50 E3520004        CMP              R2, #4      ;  if (触发类型 >=4
                                                            ) return FALSE
 1239 00000A54 23A00000        MOVCS            R0, #0
 1240 00000A58 21B0F00E        MOVCSS           PC, LR
 1241 00000A5C         
 1242 00000A5C E59F00D8        LDR              R0, =SIC2_APR
 1243 00000A60 E5903000        LDR              R3, [R0]
 1244 00000A64 E3A00001        MOV              R0, #1
 1245 00000A68 E1C33110        BIC              R3, R3, R0,LSL R1
 1246 00000A6C E3120001        TST              R2, #1
 1247 00000A70 11833110        ORRNE            R3, R3, R0,LSL R1
 1248 00000A74 E59F00C0        LDR              R0, =SIC2_APR
 1249 00000A78 E5803000        STR              R3, [R0]
 1250 00000A7C         
 1251 00000A7C E59F00BC        LDR              R0, =SIC2_ATR
 1252 00000A80 E5903000        LDR              R3, [R0]
 1253 00000A84 E3A00001        MOV              R0, #1
 1254 00000A88 E1C33110        BIC              R3, R3, R0,LSL R1
 1255 00000A8C E3120002        TST              R2, #2
 1256 00000A90 01833110        ORREQ            R3, R3, R0,LSL R1
 1257 00000A94 E59F00A4        LDR              R0, =SIC2_ATR
 1258 00000A98 E5803000        STR              R3, [R0]
 1259 00000A9C         
 1260 00000A9C E59F0094        LDR              R0, =SIC2_ITR
 1261 00000AA0 E5902000        LDR              R2, [R0]
 1262 00000AA4 E3A03001        MOV              R3, #1
 1263 00000AA8 E1822113        ORR              R2, R2, R3,LSL R1
 1264 00000AAC E5802000        STR              R2, [R0]
 1265 00000AB0         
 1266 00000AB0 E59F007C        LDR              R0, =SIC2_ER
 1267 00000AB4 E5902000        LDR              R2, [R0]
 1268 00000AB8 E1822113        ORR              R2, R2, R3,LSL R1
 1269 00000ABC E5802000        STR              R2, [R0]
 1270 00000AC0 E3A00001        MOV              R0, #1
 1271 00000AC4 E1B0F00E        MOVS             PC, LR
 1272 00000AC8         ;/******************************************************
                       ***************************************************
 1273 00000AC8         ;** Function name:           Clrsic2Fiq
 1274 00000AC8         ;** Descriptions:            清除所选中断通道号的FIQ中断
                       
 1275 00000AC8         ;** input parameters:        R0:         外设对应的中断
                       ǖ篮
 1276 00000AC8         ;** output parameters:       none
 1277 00000AC8         ;** Returned value:          1:          成功
 1278 00000AC8         ;**                          0:          失败;



ARM Macro Assembler    Page 66 


 1279 00000AC8         ;** Created by:              LinEnqiang
 1280 00000AC8         ;** Created Date:            2008-12-12
 1281 00000AC8         ;**-----------------------------------------------------
                       --------------------------------------------------
 1282 00000AC8         ;** Modified by:
 1283 00000AC8         ;** Modified date:
 1284 00000AC8         ;**-----------------------------------------------------
                       --------------------------------------------------
 1285 00000AC8         ********************************************************
*************************************************/
 1286 00000AC8         
 1287 00000AC8         Clrsic2Fiq
 1288 00000AC8 E321F0D3        MSR              CPSR_c, #(NoFIQ :OR: NoInt :OR:
 SVC32Mode)
 1289 00000ACC         
 1290 00000ACC E3510020        CMP              R1, #32     ;  if (通道号 >=32)
                                                             return FALSE
 1291 00000AD0 23A00000        MOVCS            R0, #0
 1292 00000AD4 21B0F00E        MOVCSS           PC, LR
 1293 00000AD8         
 1294 00000AD8 E59F0058        LDR              R0, =SIC2_ITR ;  if(FIQ未使能)r
                                                            eturn FALSE
 1295 00000ADC E5902000        LDR              R2, [R0]
 1296 00000AE0 E3A03001        MOV              R3, #1
 1297 00000AE4 E0123113        ANDS             R3, R2, R3,LSL R1
 1298 00000AE8 03A00000        MOVEQ            R0, #0
 1299 00000AEC 01B0F00E        MOVEQS           PC, LR
 1300 00000AF0         
 1301 00000AF0 E59F003C        LDR              R0, =SIC2_ER
 1302 00000AF4 E5902000        LDR              R2, [R0]
 1303 00000AF8 E1C22003        BIC              R2, R2, R3
 1304 00000AFC E5802000        STR              R2, [R0]    ;  Disable FIQ
 1305 00000B00         
 1306 00000B00 E59F0030        LDR              R0, =SIC2_ITR
 1307 00000B04 E5902000        LDR              R2, [R0]
 1308 00000B08 E1C22003        BIC              R2, R2, R3
 1309 00000B0C E5802000        STR              R2, [R0]
 1310 00000B10         
 1311 00000B10 E3A00001        MOV              R0, #1
 1312 00000B14 E1B0F00E        MOVS             PC, LR
 1313 00000B18         
 1314 00000B18 40008000 
              4000800C 
              40008010 
              4000C000 
              4000C014 
              4000C00C 
              4000C010 
              40010000 
              40010014 
              4001000C 
              40010010 
              00000000 
              00000000 
              00000000 
              00000000 
              00000000 
              00000000 
              4000C008 



ARM Macro Assembler    Page 67 


              4000C004 
              00000000 
              40010008 
              40010004 
              00000000 
              00000000 
              40008008 
              40008004 
              00000000 
              00000000 
              00000000 
              00000000 
              40008014 
              00000000 
              00000000 
              00000000 
              00000000 
              00000000 
              00000000 
              00000000 
              00000000 
              00000000 
              00000000 
              00000000 
              00000000 
              00000000 
              00000000 
              00000000 
              00000000 
              00000000 
              00000000         AREA             VectStacks, DATA, NOINIT, ALIGN
 = 2 
                                                            ;                  
                                                                  ;/*  分配堆栈
                                                            空间               
                                                            */    
 1315 00000000         
 1316 00000000         VectStackSpace
                               SPACE            VIC_STACK_LEGTH * 4 ;/*  中断服
                                                            务向量表堆栈空间   
                                                              */
 1317 00000180         
 1318 00000180         
 1319 00000180                 END
Command Line: --debug --xref --cpu=ARM926EJ-S --apcs=interwork --depend=..\OBJ\
vicControl.d -o..\OBJ\vicControl.o -IC:\Keil\ARM\INC -IC:\Keil\ARM\INC\Philips 
--predefine="__FLASHMODE SETA 1" --list=.\vicControl.lst ..\SRC\SYSTEM\vicContr
ol.s



ARM Macro Assembler    Page 1 Alphabetic symbol ordering
Relocatable symbols

 00000094

Symbol: 
   Definitions
      None
   Uses
      None
Warning:  undefinedComment:  unused
 000000F8

Symbol: 
   Definitions
      None
   Uses
      None
Warning:  undefinedComment:  unused
 0000016C

Symbol: 
   Definitions
      None
   Uses
      None
Warning:  undefinedComment:  unused
 00000204

Symbol: 
   Definitions
      None
   Uses
      None
Warning:  undefinedComment:  unused
 000000B4

Symbol: 
   Definitions
      None
   Uses
      None
Warning:  undefinedComment:  unused
 00000110

Symbol: 
   Definitions
      None
   Uses
      None
Warning:  undefinedComment:  unused
 00000184

Symbol: 
   Definitions
      None
   Uses
      None
Warning:  undefinedComment:  unused
 00000228

Symbol: 



ARM Macro Assembler    Page 2 Alphabetic symbol ordering
Relocatable symbols

   Definitions
      None
   Uses
      None
Warning:  undefinedComment:  unused
 00000270

Symbol: 
   Definitions
      None
   Uses
      None
Warning:  undefinedComment:  unused
ClrmicFiq 00000550

Symbol: ClrmicFiq
   Definitions
      At line 669 in file ..\SRC\SYSTEM\vicControl.s
   Uses
      At line 387 in file ..\SRC\SYSTEM\vicControl.s
Comment: ClrmicFiq used once
ClrmicIrqFunc 000003D4

Symbol: ClrmicIrqFunc
   Definitions
      At line 495 in file ..\SRC\SYSTEM\vicControl.s
   Uses
      At line 383 in file ..\SRC\SYSTEM\vicControl.s
Comment: ClrmicIrqFunc used once
Clrsic1Fiq 0000080C

Symbol: Clrsic1Fiq
   Definitions
      At line 978 in file ..\SRC\SYSTEM\vicControl.s
   Uses
      At line 394 in file ..\SRC\SYSTEM\vicControl.s
Comment: Clrsic1Fiq used once
Clrsic1IrqFunc 00000668

Symbol: Clrsic1IrqFunc
   Definitions
      At line 789 in file ..\SRC\SYSTEM\vicControl.s
   Uses
      At line 390 in file ..\SRC\SYSTEM\vicControl.s
Comment: Clrsic1IrqFunc used once
Clrsic2Fiq 00000AC8

Symbol: Clrsic2Fiq
   Definitions
      At line 1287 in file ..\SRC\SYSTEM\vicControl.s
   Uses
      At line 401 in file ..\SRC\SYSTEM\vicControl.s
Comment: Clrsic2Fiq used once
Clrsic2IrqFunc 00000924

Symbol: Clrsic2IrqFunc
   Definitions
      At line 1098 in file ..\SRC\SYSTEM\vicControl.s
   Uses



ARM Macro Assembler    Page 3 Alphabetic symbol ordering
Relocatable symbols

      At line 397 in file ..\SRC\SYSTEM\vicControl.s
Comment: Clrsic2IrqFunc used once
DisablemicIrq 00000474

Symbol: DisablemicIrq
   Definitions
      At line 572 in file ..\SRC\SYSTEM\vicControl.s
   Uses
      At line 385 in file ..\SRC\SYSTEM\vicControl.s
Comment: DisablemicIrq used once
Disablesic1Irq 00000720

Symbol: Disablesic1Irq
   Definitions
      At line 875 in file ..\SRC\SYSTEM\vicControl.s
   Uses
      At line 392 in file ..\SRC\SYSTEM\vicControl.s
Comment: Disablesic1Irq used once
Disablesic2Irq 000009DC

Symbol: Disablesic2Irq
   Definitions
      At line 1184 in file ..\SRC\SYSTEM\vicControl.s
   Uses
      At line 399 in file ..\SRC\SYSTEM\vicControl.s
Comment: Disablesic2Irq used once
EnablemicIrq 00000434

Symbol: EnablemicIrq
   Definitions
      At line 538 in file ..\SRC\SYSTEM\vicControl.s
   Uses
      At line 384 in file ..\SRC\SYSTEM\vicControl.s
Comment: EnablemicIrq used once
Enablesic1Irq 000006D8

Symbol: Enablesic1Irq
   Definitions
      At line 838 in file ..\SRC\SYSTEM\vicControl.s
   Uses
      At line 391 in file ..\SRC\SYSTEM\vicControl.s
Comment: Enablesic1Irq used once
Enablesic2Irq 00000994

Symbol: Enablesic2Irq
   Definitions
      At line 1147 in file ..\SRC\SYSTEM\vicControl.s
   Uses
      At line 398 in file ..\SRC\SYSTEM\vicControl.s
Comment: Enablesic2Irq used once
FIQ_Handler 000000CC

Symbol: FIQ_Handler
   Definitions
      At line 144 in file ..\SRC\SYSTEM\vicControl.s
   Uses
      At line 46 in file ..\SRC\SYSTEM\vicControl.s
Comment: FIQ_Handler used once
IRQ_Handler 000001D0



ARM Macro Assembler    Page 4 Alphabetic symbol ordering
Relocatable symbols


Symbol: IRQ_Handler
   Definitions
      At line 277 in file ..\SRC\SYSTEM\vicControl.s
   Uses
      At line 45 in file ..\SRC\SYSTEM\vicControl.s
Comment: IRQ_Handler used once
IRQ_SCI1_Func 000000E8

Symbol: IRQ_SCI1_Func
   Definitions
      At line 169 in file ..\SRC\SYSTEM\vicControl.s
   Uses
      At line 124 in file ..\SRC\SYSTEM\vicControl.s
Comment: IRQ_SCI1_Func used once
IRQ_SCI2_Func 0000015C

Symbol: IRQ_SCI2_Func
   Definitions
      At line 223 in file ..\SRC\SYSTEM\vicControl.s
   Uses
      At line 125 in file ..\SRC\SYSTEM\vicControl.s
Comment: IRQ_SCI2_Func used once
RUNFIRST 00000000

Symbol: RUNFIRST
   Definitions
      At line 51 in file ..\SRC\SYSTEM\vicControl.s
   Uses
      None
Comment: RUNFIRST unused
SetmicFiq 000004B4

Symbol: SetmicFiq
   Definitions
      At line 607 in file ..\SRC\SYSTEM\vicControl.s
   Uses
      At line 386 in file ..\SRC\SYSTEM\vicControl.s
Comment: SetmicFiq used once
SetmicIrqFunc 00000314

Symbol: SetmicIrqFunc
   Definitions
      At line 420 in file ..\SRC\SYSTEM\vicControl.s
   Uses
      At line 382 in file ..\SRC\SYSTEM\vicControl.s
Comment: SetmicIrqFunc used once
SetmicIrqFunc_j 00000364

Symbol: SetmicIrqFunc_j
   Definitions
      At line 447 in file ..\SRC\SYSTEM\vicControl.s
   Uses
      At line 441 in file ..\SRC\SYSTEM\vicControl.s
Comment: SetmicIrqFunc_j used once
Setsic1Fiq 00000768

Symbol: Setsic1Fiq
   Definitions



ARM Macro Assembler    Page 5 Alphabetic symbol ordering
Relocatable symbols

      At line 913 in file ..\SRC\SYSTEM\vicControl.s
   Uses
      At line 393 in file ..\SRC\SYSTEM\vicControl.s
Comment: Setsic1Fiq used once
Setsic1IrqFunc 000005A0

Symbol: Setsic1IrqFunc
   Definitions
      At line 712 in file ..\SRC\SYSTEM\vicControl.s
   Uses
      At line 389 in file ..\SRC\SYSTEM\vicControl.s
Comment: Setsic1IrqFunc used once
Setsic1IrqFunc_j 000005F8

Symbol: Setsic1IrqFunc_j
   Definitions
      At line 741 in file ..\SRC\SYSTEM\vicControl.s
   Uses
      At line 733 in file ..\SRC\SYSTEM\vicControl.s
Comment: Setsic1IrqFunc_j used once
Setsic2Fiq 00000A24

Symbol: Setsic2Fiq
   Definitions
      At line 1222 in file ..\SRC\SYSTEM\vicControl.s
   Uses
      At line 400 in file ..\SRC\SYSTEM\vicControl.s
Comment: Setsic2Fiq used once
Setsic2IrqFunc 0000085C

Symbol: Setsic2IrqFunc
   Definitions
      At line 1021 in file ..\SRC\SYSTEM\vicControl.s
   Uses
      At line 396 in file ..\SRC\SYSTEM\vicControl.s
Comment: Setsic2IrqFunc used once
Setsic2IrqFunc_j 000008B4

Symbol: Setsic2IrqFunc_j
   Definitions
      At line 1050 in file ..\SRC\SYSTEM\vicControl.s
   Uses
      At line 1042 in file ..\SRC\SYSTEM\vicControl.s
Comment: Setsic2IrqFunc_j used once
vicControl 000002BC

Symbol: vicControl
   Definitions
      At line 375 in file ..\SRC\SYSTEM\vicControl.s
   Uses
      At line 47 in file ..\SRC\SYSTEM\vicControl.s
Comment: vicControl used once
vicControlFuncAdd 000002CC

Symbol: vicControlFuncAdd
   Definitions
      At line 381 in file ..\SRC\SYSTEM\vicControl.s
   Uses
      None



ARM Macro Assembler    Page 6 Alphabetic symbol ordering
Relocatable symbols

Comment: vicControlFuncAdd unused
vicInitial 00000000

Symbol: vicInitial
   Definitions
      At line 66 in file ..\SRC\SYSTEM\vicControl.s
   Uses
      At line 44 in file ..\SRC\SYSTEM\vicControl.s
Comment: vicInitial used once
38 symbols



ARM Macro Assembler    Page 1 Alphabetic symbol ordering
Relocatable symbols

VectStackSpace 00000000

Symbol: VectStackSpace
   Definitions
      At line 1316 in file ..\SRC\SYSTEM\vicControl.s
   Uses
      At line 101 in file ..\SRC\SYSTEM\vicControl.s
      At line 123 in file ..\SRC\SYSTEM\vicControl.s
      At line 171 in file ..\SRC\SYSTEM\vicControl.s
      At line 225 in file ..\SRC\SYSTEM\vicControl.s
      At line 296 in file ..\SRC\SYSTEM\vicControl.s
      At line 443 in file ..\SRC\SYSTEM\vicControl.s
      At line 507 in file ..\SRC\SYSTEM\vicControl.s
      At line 519 in file ..\SRC\SYSTEM\vicControl.s
      At line 543 in file ..\SRC\SYSTEM\vicControl.s
      At line 577 in file ..\SRC\SYSTEM\vicControl.s
      At line 614 in file ..\SRC\SYSTEM\vicControl.s
      At line 735 in file ..\SRC\SYSTEM\vicControl.s
      At line 801 in file ..\SRC\SYSTEM\vicControl.s
      At line 816 in file ..\SRC\SYSTEM\vicControl.s
      At line 843 in file ..\SRC\SYSTEM\vicControl.s
      At line 880 in file ..\SRC\SYSTEM\vicControl.s
      At line 920 in file ..\SRC\SYSTEM\vicControl.s
      At line 1044 in file ..\SRC\SYSTEM\vicControl.s
      At line 1110 in file ..\SRC\SYSTEM\vicControl.s
      At line 1125 in file ..\SRC\SYSTEM\vicControl.s
      At line 1152 in file ..\SRC\SYSTEM\vicControl.s
      At line 1189 in file ..\SRC\SYSTEM\vicControl.s
      At line 1229 in file ..\SRC\SYSTEM\vicControl.s

VectStacks 00000000

Symbol: VectStacks
   Definitions
      At line 1314 in file ..\SRC\SYSTEM\vicControl.s
   Uses
      None
Comment: VectStacks unused
2 symbols



ARM Macro Assembler    Page 1 Alphabetic symbol ordering
Absolute symbols

ADCLK_CTRL 400040B4

Symbol: ADCLK_CTRL
   Definitions
      At line 61 in file ..\SRC\SYSTEM\LPC3200.INC
   Uses
      None
Comment: ADCLK_CTRL unused
ADCLK_CTRL1 40004060

Symbol: ADCLK_CTRL1
   Definitions
      At line 62 in file ..\SRC\SYSTEM\LPC3200.INC
   Uses
      None
Comment: ADCLK_CTRL1 unused
ADC_CTRL 40048008

Symbol: ADC_CTRL
   Definitions
      At line 320 in file ..\SRC\SYSTEM\LPC3200.INC
   Uses
      None
Comment: ADC_CTRL unused
ADC_SELECT 40048004

Symbol: ADC_SELECT
   Definitions
      At line 319 in file ..\SRC\SYSTEM\LPC3200.INC
   Uses
      None
Comment: ADC_SELECT unused
ADC_STAT 40048000

Symbol: ADC_STAT
   Definitions
      At line 318 in file ..\SRC\SYSTEM\LPC3200.INC
   Uses
      None
Comment: ADC_STAT unused
ADC_VALUE 40048048

Symbol: ADC_VALUE
   Definitions
      At line 335 in file ..\SRC\SYSTEM\LPC3200.INC
   Uses
      None
Comment: ADC_VALUE unused
AUTOCLK_CTRL 400040EC

Symbol: AUTOCLK_CTRL
   Definitions
      At line 36 in file ..\SRC\SYSTEM\LPC3200.INC
   Uses
      None
Comment: AUTOCLK_CTRL unused
BOOT_MAP 40004014

Symbol: BOOT_MAP



ARM Macro Assembler    Page 2 Alphabetic symbol ordering
Absolute symbols

   Definitions
      At line 25 in file ..\SRC\SYSTEM\LPC3200.INC
   Uses
      None
Comment: BOOT_MAP unused
CLK_PM_BASE_ADDR 40004000

Symbol: CLK_PM_BASE_ADDR
   Definitions
      At line 27 in file ..\SRC\SYSTEM\LPC3200.INC
   Uses
      At line 25 in file ..\SRC\SYSTEM\LPC3200.INC
      At line 29 in file ..\SRC\SYSTEM\LPC3200.INC
      At line 30 in file ..\SRC\SYSTEM\LPC3200.INC
      At line 31 in file ..\SRC\SYSTEM\LPC3200.INC
      At line 32 in file ..\SRC\SYSTEM\LPC3200.INC
      At line 33 in file ..\SRC\SYSTEM\LPC3200.INC
      At line 34 in file ..\SRC\SYSTEM\LPC3200.INC
      At line 35 in file ..\SRC\SYSTEM\LPC3200.INC
      At line 36 in file ..\SRC\SYSTEM\LPC3200.INC
      At line 38 in file ..\SRC\SYSTEM\LPC3200.INC
      At line 39 in file ..\SRC\SYSTEM\LPC3200.INC
      At line 40 in file ..\SRC\SYSTEM\LPC3200.INC
      At line 41 in file ..\SRC\SYSTEM\LPC3200.INC
      At line 42 in file ..\SRC\SYSTEM\LPC3200.INC
      At line 43 in file ..\SRC\SYSTEM\LPC3200.INC
      At line 44 in file ..\SRC\SYSTEM\LPC3200.INC
      At line 45 in file ..\SRC\SYSTEM\LPC3200.INC
      At line 47 in file ..\SRC\SYSTEM\LPC3200.INC
      At line 48 in file ..\SRC\SYSTEM\LPC3200.INC
      At line 49 in file ..\SRC\SYSTEM\LPC3200.INC
      At line 50 in file ..\SRC\SYSTEM\LPC3200.INC
      At line 51 in file ..\SRC\SYSTEM\LPC3200.INC
      At line 52 in file ..\SRC\SYSTEM\LPC3200.INC
      At line 53 in file ..\SRC\SYSTEM\LPC3200.INC
      At line 54 in file ..\SRC\SYSTEM\LPC3200.INC
      At line 55 in file ..\SRC\SYSTEM\LPC3200.INC
      At line 56 in file ..\SRC\SYSTEM\LPC3200.INC
      At line 57 in file ..\SRC\SYSTEM\LPC3200.INC
      At line 59 in file ..\SRC\SYSTEM\LPC3200.INC
      At line 60 in file ..\SRC\SYSTEM\LPC3200.INC
      At line 61 in file ..\SRC\SYSTEM\LPC3200.INC
      At line 62 in file ..\SRC\SYSTEM\LPC3200.INC
      At line 63 in file ..\SRC\SYSTEM\LPC3200.INC
      At line 64 in file ..\SRC\SYSTEM\LPC3200.INC
      At line 65 in file ..\SRC\SYSTEM\LPC3200.INC

CMD_CODE 31020210

Symbol: CMD_CODE
   Definitions
      At line 423 in file ..\SRC\SYSTEM\LPC3200.INC
   Uses
      None
Comment: CMD_CODE unused
CMD_DATA 31020214

Symbol: CMD_DATA
   Definitions



ARM Macro Assembler    Page 3 Alphabetic symbol ordering
Absolute symbols

      At line 424 in file ..\SRC\SYSTEM\LPC3200.INC
   Uses
      None
Comment: CMD_DATA unused
CRSR_CFG 31040C04

Symbol: CRSR_CFG
   Definitions
      At line 307 in file ..\SRC\SYSTEM\LPC3200.INC
   Uses
      None
Comment: CRSR_CFG unused
CRSR_CLIP 31040C14

Symbol: CRSR_CLIP
   Definitions
      At line 311 in file ..\SRC\SYSTEM\LPC3200.INC
   Uses
      None
Comment: CRSR_CLIP unused
CRSR_CTRL 31040C00

Symbol: CRSR_CTRL
   Definitions
      At line 306 in file ..\SRC\SYSTEM\LPC3200.INC
   Uses
      None
Comment: CRSR_CTRL unused
CRSR_IMG 31040800

Symbol: CRSR_IMG
   Definitions
      At line 305 in file ..\SRC\SYSTEM\LPC3200.INC
   Uses
      None
Comment: CRSR_IMG unused
CRSR_INTCLR 31040C24

Symbol: CRSR_INTCLR
   Definitions
      At line 313 in file ..\SRC\SYSTEM\LPC3200.INC
   Uses
      None
Comment: CRSR_INTCLR unused
CRSR_INTMSK 31040C20

Symbol: CRSR_INTMSK
   Definitions
      At line 312 in file ..\SRC\SYSTEM\LPC3200.INC
   Uses
      None
Comment: CRSR_INTMSK unused
CRSR_INTRAW 31040C28

Symbol: CRSR_INTRAW
   Definitions
      At line 314 in file ..\SRC\SYSTEM\LPC3200.INC
   Uses
      None



ARM Macro Assembler    Page 4 Alphabetic symbol ordering
Absolute symbols

Comment: CRSR_INTRAW unused
CRSR_INTSTAT 31040C2C

Symbol: CRSR_INTSTAT
   Definitions
      At line 315 in file ..\SRC\SYSTEM\LPC3200.INC
   Uses
      None
Comment: CRSR_INTSTAT unused
CRSR_PAL0 31040C08

Symbol: CRSR_PAL0
   Definitions
      At line 308 in file ..\SRC\SYSTEM\LPC3200.INC
   Uses
      None
Comment: CRSR_PAL0 unused
CRSR_PAL1 31040C0C

Symbol: CRSR_PAL1
   Definitions
      At line 309 in file ..\SRC\SYSTEM\LPC3200.INC
   Uses
      None
Comment: CRSR_PAL1 unused
CRSR_XY 31040C10

Symbol: CRSR_XY
   Definitions
      At line 310 in file ..\SRC\SYSTEM\LPC3200.INC
   Uses
      None
Comment: CRSR_XY unused
DC_REVISION 3102027C

Symbol: DC_REVISION
   Definitions
      At line 430 in file ..\SRC\SYSTEM\LPC3200.INC
   Uses
      None
Comment: DC_REVISION unused
DDR_BASE_ADDR 40004000

Symbol: DDR_BASE_ADDR
   Definitions
      At line 209 in file ..\SRC\SYSTEM\LPC3200.INC
   Uses
      At line 210 in file ..\SRC\SYSTEM\LPC3200.INC
      At line 211 in file ..\SRC\SYSTEM\LPC3200.INC
      At line 212 in file ..\SRC\SYSTEM\LPC3200.INC

DDR_CAL_DELAY 40004074

Symbol: DDR_CAL_DELAY
   Definitions
      At line 212 in file ..\SRC\SYSTEM\LPC3200.INC
   Uses
      None
Comment: DDR_CAL_DELAY unused



ARM Macro Assembler    Page 5 Alphabetic symbol ordering
Absolute symbols

DDR_LAP_COUNT 40004070

Symbol: DDR_LAP_COUNT
   Definitions
      At line 211 in file ..\SRC\SYSTEM\LPC3200.INC
   Uses
      None
Comment: DDR_LAP_COUNT unused
DDR_LAP_NOM 4000406C

Symbol: DDR_LAP_NOM
   Definitions
      At line 210 in file ..\SRC\SYSTEM\LPC3200.INC
   Uses
      None
Comment: DDR_LAP_NOM unused
DEV_INT_CLR 31020208

Symbol: DEV_INT_CLR
   Definitions
      At line 412 in file ..\SRC\SYSTEM\LPC3200.INC
   Uses
      None
Comment: DEV_INT_CLR unused
DEV_INT_EN 31020204

Symbol: DEV_INT_EN
   Definitions
      At line 411 in file ..\SRC\SYSTEM\LPC3200.INC
   Uses
      None
Comment: DEV_INT_EN unused
DEV_INT_PRIO 3102022C

Symbol: DEV_INT_PRIO
   Definitions
      At line 414 in file ..\SRC\SYSTEM\LPC3200.INC
   Uses
      None
Comment: DEV_INT_PRIO unused
DEV_INT_SET 3102020C

Symbol: DEV_INT_SET
   Definitions
      At line 413 in file ..\SRC\SYSTEM\LPC3200.INC
   Uses
      None
Comment: DEV_INT_SET unused
DEV_INT_STAT 31020200

Symbol: DEV_INT_STAT
   Definitions
      At line 410 in file ..\SRC\SYSTEM\LPC3200.INC
   Uses
      None
Comment: DEV_INT_STAT unused
DMACC0Config 31000110

Symbol: DMACC0Config



ARM Macro Assembler    Page 6 Alphabetic symbol ordering
Absolute symbols

   Definitions
      At line 114 in file ..\SRC\SYSTEM\LPC3200.INC
   Uses
      None
Comment: DMACC0Config unused
DMACC0Control 3100010C

Symbol: DMACC0Control
   Definitions
      At line 113 in file ..\SRC\SYSTEM\LPC3200.INC
   Uses
      None
Comment: DMACC0Control unused
DMACC0DestAddr 31000104

Symbol: DMACC0DestAddr
   Definitions
      At line 111 in file ..\SRC\SYSTEM\LPC3200.INC
   Uses
      None
Comment: DMACC0DestAddr unused
DMACC0LLI 31000108

Symbol: DMACC0LLI
   Definitions
      At line 112 in file ..\SRC\SYSTEM\LPC3200.INC
   Uses
      None
Comment: DMACC0LLI unused
DMACC0SrcAddr 31000100

Symbol: DMACC0SrcAddr
   Definitions
      At line 110 in file ..\SRC\SYSTEM\LPC3200.INC
   Uses
      None
Comment: DMACC0SrcAddr unused
DMACC1Config 31000130

Symbol: DMACC1Config
   Definitions
      At line 121 in file ..\SRC\SYSTEM\LPC3200.INC
   Uses
      None
Comment: DMACC1Config unused
DMACC1Control 3100012C

Symbol: DMACC1Control
   Definitions
      At line 120 in file ..\SRC\SYSTEM\LPC3200.INC
   Uses
      None
Comment: DMACC1Control unused
DMACC1DestAddr 31000124

Symbol: DMACC1DestAddr
   Definitions
      At line 118 in file ..\SRC\SYSTEM\LPC3200.INC
   Uses



ARM Macro Assembler    Page 7 Alphabetic symbol ordering
Absolute symbols

      None
Comment: DMACC1DestAddr unused
DMACC1LLI 31000128

Symbol: DMACC1LLI
   Definitions
      At line 119 in file ..\SRC\SYSTEM\LPC3200.INC
   Uses
      None
Comment: DMACC1LLI unused
DMACC1SrcAddr 31000120

Symbol: DMACC1SrcAddr
   Definitions
      At line 117 in file ..\SRC\SYSTEM\LPC3200.INC
   Uses
      None
Comment: DMACC1SrcAddr unused
DMACC2Config 31000150

Symbol: DMACC2Config
   Definitions
      At line 128 in file ..\SRC\SYSTEM\LPC3200.INC
   Uses
      None
Comment: DMACC2Config unused
DMACC2Control 3100014C

Symbol: DMACC2Control
   Definitions
      At line 127 in file ..\SRC\SYSTEM\LPC3200.INC
   Uses
      None
Comment: DMACC2Control unused
DMACC2DestAddr 31000144

Symbol: DMACC2DestAddr
   Definitions
      At line 125 in file ..\SRC\SYSTEM\LPC3200.INC
   Uses
      None
Comment: DMACC2DestAddr unused
DMACC2LLI 31000148

Symbol: DMACC2LLI
   Definitions
      At line 126 in file ..\SRC\SYSTEM\LPC3200.INC
   Uses
      None
Comment: DMACC2LLI unused
DMACC2SrcAddr 31000140

Symbol: DMACC2SrcAddr
   Definitions
      At line 124 in file ..\SRC\SYSTEM\LPC3200.INC
   Uses
      None
Comment: DMACC2SrcAddr unused
DMACC3Config 31000170



ARM Macro Assembler    Page 8 Alphabetic symbol ordering
Absolute symbols


Symbol: DMACC3Config
   Definitions
      At line 135 in file ..\SRC\SYSTEM\LPC3200.INC
   Uses
      None
Comment: DMACC3Config unused
DMACC3Control 3100016C

Symbol: DMACC3Control
   Definitions
      At line 134 in file ..\SRC\SYSTEM\LPC3200.INC
   Uses
      None
Comment: DMACC3Control unused
DMACC3DestAddr 31000164

Symbol: DMACC3DestAddr
   Definitions
      At line 132 in file ..\SRC\SYSTEM\LPC3200.INC
   Uses
      None
Comment: DMACC3DestAddr unused
DMACC3LLI 31000168

Symbol: DMACC3LLI
   Definitions
      At line 133 in file ..\SRC\SYSTEM\LPC3200.INC
   Uses
      None
Comment: DMACC3LLI unused
DMACC3SrcAddr 31000160

Symbol: DMACC3SrcAddr
   Definitions
      At line 131 in file ..\SRC\SYSTEM\LPC3200.INC
   Uses
      None
Comment: DMACC3SrcAddr unused
DMACC4Config 31000190

Symbol: DMACC4Config
   Definitions
      At line 142 in file ..\SRC\SYSTEM\LPC3200.INC
   Uses
      None
Comment: DMACC4Config unused
DMACC4Control 3100018C

Symbol: DMACC4Control
   Definitions
      At line 141 in file ..\SRC\SYSTEM\LPC3200.INC
   Uses
      None
Comment: DMACC4Control unused
DMACC4DestAddr 31000184

Symbol: DMACC4DestAddr
   Definitions



ARM Macro Assembler    Page 9 Alphabetic symbol ordering
Absolute symbols

      At line 139 in file ..\SRC\SYSTEM\LPC3200.INC
   Uses
      None
Comment: DMACC4DestAddr unused
DMACC4LLI 31000188

Symbol: DMACC4LLI
   Definitions
      At line 140 in file ..\SRC\SYSTEM\LPC3200.INC
   Uses
      None
Comment: DMACC4LLI unused
DMACC4SrcAddr 31000180

Symbol: DMACC4SrcAddr
   Definitions
      At line 138 in file ..\SRC\SYSTEM\LPC3200.INC
   Uses
      None
Comment: DMACC4SrcAddr unused
DMACC5Config 310001B0

Symbol: DMACC5Config
   Definitions
      At line 149 in file ..\SRC\SYSTEM\LPC3200.INC
   Uses
      None
Comment: DMACC5Config unused
DMACC5Control 310001AC

Symbol: DMACC5Control
   Definitions
      At line 148 in file ..\SRC\SYSTEM\LPC3200.INC
   Uses
      None
Comment: DMACC5Control unused
DMACC5DestAddr 310001A4

Symbol: DMACC5DestAddr
   Definitions
      At line 146 in file ..\SRC\SYSTEM\LPC3200.INC
   Uses
      None
Comment: DMACC5DestAddr unused
DMACC5LLI 310001A8

Symbol: DMACC5LLI
   Definitions
      At line 147 in file ..\SRC\SYSTEM\LPC3200.INC
   Uses
      None
Comment: DMACC5LLI unused
DMACC5SrcAddr 310001A0

Symbol: DMACC5SrcAddr
   Definitions
      At line 145 in file ..\SRC\SYSTEM\LPC3200.INC
   Uses
      None



ARM Macro Assembler    Page 10 Alphabetic symbol ordering
Absolute symbols

Comment: DMACC5SrcAddr unused
DMACC6Config 310001D0

Symbol: DMACC6Config
   Definitions
      At line 156 in file ..\SRC\SYSTEM\LPC3200.INC
   Uses
      None
Comment: DMACC6Config unused
DMACC6Control 310001CC

Symbol: DMACC6Control
   Definitions
      At line 155 in file ..\SRC\SYSTEM\LPC3200.INC
   Uses
      None
Comment: DMACC6Control unused
DMACC6DestAddr 310001C4

Symbol: DMACC6DestAddr
   Definitions
      At line 153 in file ..\SRC\SYSTEM\LPC3200.INC
   Uses
      None
Comment: DMACC6DestAddr unused
DMACC6LLI 310001C8

Symbol: DMACC6LLI
   Definitions
      At line 154 in file ..\SRC\SYSTEM\LPC3200.INC
   Uses
      None
Comment: DMACC6LLI unused
DMACC6SrcAddr 310001C0

Symbol: DMACC6SrcAddr
   Definitions
      At line 152 in file ..\SRC\SYSTEM\LPC3200.INC
   Uses
      None
Comment: DMACC6SrcAddr unused
DMACC7Config 310001F0

Symbol: DMACC7Config
   Definitions
      At line 163 in file ..\SRC\SYSTEM\LPC3200.INC
   Uses
      None
Comment: DMACC7Config unused
DMACC7Control 310001EC

Symbol: DMACC7Control
   Definitions
      At line 162 in file ..\SRC\SYSTEM\LPC3200.INC
   Uses
      None
Comment: DMACC7Control unused
DMACC7DestAddr 310001E4




ARM Macro Assembler    Page 11 Alphabetic symbol ordering
Absolute symbols

Symbol: DMACC7DestAddr
   Definitions
      At line 160 in file ..\SRC\SYSTEM\LPC3200.INC
   Uses
      None
Comment: DMACC7DestAddr unused
DMACC7LLI 310001E8

Symbol: DMACC7LLI
   Definitions
      At line 161 in file ..\SRC\SYSTEM\LPC3200.INC
   Uses
      None
Comment: DMACC7LLI unused
DMACC7SrcAddr 310001E0

Symbol: DMACC7SrcAddr
   Definitions
      At line 159 in file ..\SRC\SYSTEM\LPC3200.INC
   Uses
      None
Comment: DMACC7SrcAddr unused
DMACConfig 31000030

Symbol: DMACConfig
   Definitions
      At line 107 in file ..\SRC\SYSTEM\LPC3200.INC
   Uses
      None
Comment: DMACConfig unused
DMACEnbldChns 3100001C

Symbol: DMACEnbldChns
   Definitions
      At line 102 in file ..\SRC\SYSTEM\LPC3200.INC
   Uses
      None
Comment: DMACEnbldChns unused
DMACIntErrClr 31000010

Symbol: DMACIntErrClr
   Definitions
      At line 99 in file ..\SRC\SYSTEM\LPC3200.INC
   Uses
      None
Comment: DMACIntErrClr unused
DMACIntErrStat 3100000C

Symbol: DMACIntErrStat
   Definitions
      At line 98 in file ..\SRC\SYSTEM\LPC3200.INC
   Uses
      None
Comment: DMACIntErrStat unused
DMACIntStat 31000000

Symbol: DMACIntStat
   Definitions
      At line 95 in file ..\SRC\SYSTEM\LPC3200.INC



ARM Macro Assembler    Page 12 Alphabetic symbol ordering
Absolute symbols

   Uses
      None
Comment: DMACIntStat unused
DMACIntTCClear 31000008

Symbol: DMACIntTCClear
   Definitions
      At line 97 in file ..\SRC\SYSTEM\LPC3200.INC
   Uses
      None
Comment: DMACIntTCClear unused
DMACIntTCStat 31000004

Symbol: DMACIntTCStat
   Definitions
      At line 96 in file ..\SRC\SYSTEM\LPC3200.INC
   Uses
      None
Comment: DMACIntTCStat unused
DMACLK_CTRL 400040E8

Symbol: DMACLK_CTRL
   Definitions
      At line 47 in file ..\SRC\SYSTEM\LPC3200.INC
   Uses
      None
Comment: DMACLK_CTRL unused
DMACRawIntErrStat 31000018

Symbol: DMACRawIntErrStat
   Definitions
      At line 101 in file ..\SRC\SYSTEM\LPC3200.INC
   Uses
      None
Comment: DMACRawIntErrStat unused
DMACRawIntTCStat 31000014

Symbol: DMACRawIntTCStat
   Definitions
      At line 100 in file ..\SRC\SYSTEM\LPC3200.INC
   Uses
      None
Comment: DMACRawIntTCStat unused
DMACSoftBReq 31000020

Symbol: DMACSoftBReq
   Definitions
      At line 103 in file ..\SRC\SYSTEM\LPC3200.INC
   Uses
      None
Comment: DMACSoftBReq unused
DMACSoftLBReq 31000028

Symbol: DMACSoftLBReq
   Definitions
      At line 105 in file ..\SRC\SYSTEM\LPC3200.INC
   Uses
      None
Comment: DMACSoftLBReq unused



ARM Macro Assembler    Page 13 Alphabetic symbol ordering
Absolute symbols

DMACSoftLSReq 3100002C

Symbol: DMACSoftLSReq
   Definitions
      At line 106 in file ..\SRC\SYSTEM\LPC3200.INC
   Uses
      None
Comment: DMACSoftLSReq unused
DMACSoftSReq 31000024

Symbol: DMACSoftSReq
   Definitions
      At line 104 in file ..\SRC\SYSTEM\LPC3200.INC
   Uses
      None
Comment: DMACSoftSReq unused
DMA_CHAN0_BASE_ADDR 31000100

Symbol: DMA_CHAN0_BASE_ADDR
   Definitions
      At line 109 in file ..\SRC\SYSTEM\LPC3200.INC
   Uses
      At line 110 in file ..\SRC\SYSTEM\LPC3200.INC
      At line 111 in file ..\SRC\SYSTEM\LPC3200.INC
      At line 112 in file ..\SRC\SYSTEM\LPC3200.INC
      At line 113 in file ..\SRC\SYSTEM\LPC3200.INC
      At line 114 in file ..\SRC\SYSTEM\LPC3200.INC

DMA_CHAN1_BASE_ADDR 31000120

Symbol: DMA_CHAN1_BASE_ADDR
   Definitions
      At line 116 in file ..\SRC\SYSTEM\LPC3200.INC
   Uses
      At line 117 in file ..\SRC\SYSTEM\LPC3200.INC
      At line 118 in file ..\SRC\SYSTEM\LPC3200.INC
      At line 119 in file ..\SRC\SYSTEM\LPC3200.INC
      At line 120 in file ..\SRC\SYSTEM\LPC3200.INC
      At line 121 in file ..\SRC\SYSTEM\LPC3200.INC

DMA_CHAN2_BASE_ADDR 31000140

Symbol: DMA_CHAN2_BASE_ADDR
   Definitions
      At line 123 in file ..\SRC\SYSTEM\LPC3200.INC
   Uses
      At line 124 in file ..\SRC\SYSTEM\LPC3200.INC
      At line 125 in file ..\SRC\SYSTEM\LPC3200.INC
      At line 126 in file ..\SRC\SYSTEM\LPC3200.INC
      At line 127 in file ..\SRC\SYSTEM\LPC3200.INC
      At line 128 in file ..\SRC\SYSTEM\LPC3200.INC

DMA_CHAN3_BASE_ADDR 31000160

Symbol: DMA_CHAN3_BASE_ADDR
   Definitions
      At line 130 in file ..\SRC\SYSTEM\LPC3200.INC
   Uses
      At line 131 in file ..\SRC\SYSTEM\LPC3200.INC



ARM Macro Assembler    Page 14 Alphabetic symbol ordering
Absolute symbols

      At line 132 in file ..\SRC\SYSTEM\LPC3200.INC
      At line 133 in file ..\SRC\SYSTEM\LPC3200.INC
      At line 134 in file ..\SRC\SYSTEM\LPC3200.INC
      At line 135 in file ..\SRC\SYSTEM\LPC3200.INC

DMA_CHAN4_BASE_ADDR 31000180

Symbol: DMA_CHAN4_BASE_ADDR
   Definitions
      At line 137 in file ..\SRC\SYSTEM\LPC3200.INC
   Uses
      At line 138 in file ..\SRC\SYSTEM\LPC3200.INC
      At line 139 in file ..\SRC\SYSTEM\LPC3200.INC
      At line 140 in file ..\SRC\SYSTEM\LPC3200.INC
      At line 141 in file ..\SRC\SYSTEM\LPC3200.INC
      At line 142 in file ..\SRC\SYSTEM\LPC3200.INC

DMA_CHAN5_BASE_ADDR 310001A0

Symbol: DMA_CHAN5_BASE_ADDR
   Definitions
      At line 144 in file ..\SRC\SYSTEM\LPC3200.INC
   Uses
      At line 145 in file ..\SRC\SYSTEM\LPC3200.INC
      At line 146 in file ..\SRC\SYSTEM\LPC3200.INC
      At line 147 in file ..\SRC\SYSTEM\LPC3200.INC
      At line 148 in file ..\SRC\SYSTEM\LPC3200.INC
      At line 149 in file ..\SRC\SYSTEM\LPC3200.INC

DMA_CHAN6_BASE_ADDR 310001C0

Symbol: DMA_CHAN6_BASE_ADDR
   Definitions
      At line 151 in file ..\SRC\SYSTEM\LPC3200.INC
   Uses
      At line 152 in file ..\SRC\SYSTEM\LPC3200.INC
      At line 153 in file ..\SRC\SYSTEM\LPC3200.INC
      At line 154 in file ..\SRC\SYSTEM\LPC3200.INC
      At line 155 in file ..\SRC\SYSTEM\LPC3200.INC
      At line 156 in file ..\SRC\SYSTEM\LPC3200.INC

DMA_CHAN7_BASE_ADDR 310001E0

Symbol: DMA_CHAN7_BASE_ADDR
   Definitions
      At line 158 in file ..\SRC\SYSTEM\LPC3200.INC
   Uses
      At line 159 in file ..\SRC\SYSTEM\LPC3200.INC
      At line 160 in file ..\SRC\SYSTEM\LPC3200.INC
      At line 161 in file ..\SRC\SYSTEM\LPC3200.INC
      At line 162 in file ..\SRC\SYSTEM\LPC3200.INC
      At line 163 in file ..\SRC\SYSTEM\LPC3200.INC

DMA_GENERAL_BASE_ADDR 31000000

Symbol: DMA_GENERAL_BASE_ADDR
   Definitions
      At line 94 in file ..\SRC\SYSTEM\LPC3200.INC
   Uses



ARM Macro Assembler    Page 15 Alphabetic symbol ordering
Absolute symbols

      At line 95 in file ..\SRC\SYSTEM\LPC3200.INC
      At line 96 in file ..\SRC\SYSTEM\LPC3200.INC
      At line 97 in file ..\SRC\SYSTEM\LPC3200.INC
      At line 98 in file ..\SRC\SYSTEM\LPC3200.INC
      At line 99 in file ..\SRC\SYSTEM\LPC3200.INC
      At line 100 in file ..\SRC\SYSTEM\LPC3200.INC
      At line 101 in file ..\SRC\SYSTEM\LPC3200.INC
      At line 102 in file ..\SRC\SYSTEM\LPC3200.INC
      At line 103 in file ..\SRC\SYSTEM\LPC3200.INC
      At line 104 in file ..\SRC\SYSTEM\LPC3200.INC
      At line 105 in file ..\SRC\SYSTEM\LPC3200.INC
      At line 106 in file ..\SRC\SYSTEM\LPC3200.INC
      At line 107 in file ..\SRC\SYSTEM\LPC3200.INC

DMA_INT_EN 31020294

Symbol: DMA_INT_EN
   Definitions
      At line 440 in file ..\SRC\SYSTEM\LPC3200.INC
   Uses
      None
Comment: DMA_INT_EN unused
DMA_INT_STAT 31020290

Symbol: DMA_INT_STAT
   Definitions
      At line 439 in file ..\SRC\SYSTEM\LPC3200.INC
   Uses
      None
Comment: DMA_INT_STAT unused
DMA_REQ_CLR 31020254

Symbol: DMA_REQ_CLR
   Definitions
      At line 433 in file ..\SRC\SYSTEM\LPC3200.INC
   Uses
      None
Comment: DMA_REQ_CLR unused
DMA_REQ_SET 31020258

Symbol: DMA_REQ_SET
   Definitions
      At line 434 in file ..\SRC\SYSTEM\LPC3200.INC
   Uses
      None
Comment: DMA_REQ_SET unused
DMA_REQ_STAT 31020250

Symbol: DMA_REQ_STAT
   Definitions
      At line 432 in file ..\SRC\SYSTEM\LPC3200.INC
   Uses
      None
Comment: DMA_REQ_STAT unused
EMCAHBControl0 31080400

Symbol: EMCAHBControl0
   Definitions
      At line 193 in file ..\SRC\SYSTEM\LPC3200.INC



ARM Macro Assembler    Page 16 Alphabetic symbol ordering
Absolute symbols

   Uses
      None
Comment: EMCAHBControl0 unused
EMCAHBControl2 31080440

Symbol: EMCAHBControl2
   Definitions
      At line 197 in file ..\SRC\SYSTEM\LPC3200.INC
   Uses
      None
Comment: EMCAHBControl2 unused
EMCAHBControl3 31080460

Symbol: EMCAHBControl3
   Definitions
      At line 201 in file ..\SRC\SYSTEM\LPC3200.INC
   Uses
      None
Comment: EMCAHBControl3 unused
EMCAHBControl4 31080480

Symbol: EMCAHBControl4
   Definitions
      At line 205 in file ..\SRC\SYSTEM\LPC3200.INC
   Uses
      None
Comment: EMCAHBControl4 unused
EMCAHBStatus0 31080404

Symbol: EMCAHBStatus0
   Definitions
      At line 194 in file ..\SRC\SYSTEM\LPC3200.INC
   Uses
      None
Comment: EMCAHBStatus0 unused
EMCAHBStatus2 31080444

Symbol: EMCAHBStatus2
   Definitions
      At line 198 in file ..\SRC\SYSTEM\LPC3200.INC
   Uses
      None
Comment: EMCAHBStatus2 unused
EMCAHBStatus3 31080464

Symbol: EMCAHBStatus3
   Definitions
      At line 202 in file ..\SRC\SYSTEM\LPC3200.INC
   Uses
      None
Comment: EMCAHBStatus3 unused
EMCAHBStatus4 31080484

Symbol: EMCAHBStatus4
   Definitions
      At line 206 in file ..\SRC\SYSTEM\LPC3200.INC
   Uses
      None
Comment: EMCAHBStatus4 unused



ARM Macro Assembler    Page 17 Alphabetic symbol ordering
Absolute symbols

EMCAHBTimeout0 31080408

Symbol: EMCAHBTimeout0
   Definitions
      At line 195 in file ..\SRC\SYSTEM\LPC3200.INC
   Uses
      None
Comment: EMCAHBTimeout0 unused
EMCAHBTimeout2 31080448

Symbol: EMCAHBTimeout2
   Definitions
      At line 199 in file ..\SRC\SYSTEM\LPC3200.INC
   Uses
      None
Comment: EMCAHBTimeout2 unused
EMCAHBTimeout3 31080468

Symbol: EMCAHBTimeout3
   Definitions
      At line 203 in file ..\SRC\SYSTEM\LPC3200.INC
   Uses
      None
Comment: EMCAHBTimeout3 unused
EMCAHBTimeout4 31080488

Symbol: EMCAHBTimeout4
   Definitions
      At line 207 in file ..\SRC\SYSTEM\LPC3200.INC
   Uses
      None
Comment: EMCAHBTimeout4 unused
EMCConfig 31080008

Symbol: EMCConfig
   Definitions
      At line 171 in file ..\SRC\SYSTEM\LPC3200.INC
   Uses
      None
Comment: EMCConfig unused
EMCControl 31080000

Symbol: EMCControl
   Definitions
      At line 169 in file ..\SRC\SYSTEM\LPC3200.INC
   Uses
      None
Comment: EMCControl unused
EMCDynamicCDLR 3108005C

Symbol: EMCDynamicCDLR
   Definitions
      At line 184 in file ..\SRC\SYSTEM\LPC3200.INC
   Uses
      None
Comment: EMCDynamicCDLR unused
EMCDynamicConfig0 31080100

Symbol: EMCDynamicConfig0



ARM Macro Assembler    Page 18 Alphabetic symbol ordering
Absolute symbols

   Definitions
      At line 187 in file ..\SRC\SYSTEM\LPC3200.INC
   Uses
      None
Comment: EMCDynamicConfig0 unused
EMCDynamicConfig1 31080120

Symbol: EMCDynamicConfig1
   Definitions
      At line 190 in file ..\SRC\SYSTEM\LPC3200.INC
   Uses
      None
Comment: EMCDynamicConfig1 unused
EMCDynamicControl 31080020

Symbol: EMCDynamicControl
   Definitions
      At line 172 in file ..\SRC\SYSTEM\LPC3200.INC
   Uses
      None
Comment: EMCDynamicControl unused
EMCDynamicMRD 31080058

Symbol: EMCDynamicMRD
   Definitions
      At line 183 in file ..\SRC\SYSTEM\LPC3200.INC
   Uses
      None
Comment: EMCDynamicMRD unused
EMCDynamicRAS 31080034

Symbol: EMCDynamicRAS
   Definitions
      At line 176 in file ..\SRC\SYSTEM\LPC3200.INC
   Uses
      None
Comment: EMCDynamicRAS unused
EMCDynamicRC 31080048

Symbol: EMCDynamicRC
   Definitions
      At line 179 in file ..\SRC\SYSTEM\LPC3200.INC
   Uses
      None
Comment: EMCDynamicRC unused
EMCDynamicRFC 3108004C

Symbol: EMCDynamicRFC
   Definitions
      At line 180 in file ..\SRC\SYSTEM\LPC3200.INC
   Uses
      None
Comment: EMCDynamicRFC unused
EMCDynamicRP 31080030

Symbol: EMCDynamicRP
   Definitions
      At line 175 in file ..\SRC\SYSTEM\LPC3200.INC
   Uses



ARM Macro Assembler    Page 19 Alphabetic symbol ordering
Absolute symbols

      None
Comment: EMCDynamicRP unused
EMCDynamicRRD 31080054

Symbol: EMCDynamicRRD
   Definitions
      At line 182 in file ..\SRC\SYSTEM\LPC3200.INC
   Uses
      None
Comment: EMCDynamicRRD unused
EMCDynamicRasCas0 31080104

Symbol: EMCDynamicRasCas0
   Definitions
      At line 188 in file ..\SRC\SYSTEM\LPC3200.INC
   Uses
      None
Comment: EMCDynamicRasCas0 unused
EMCDynamicRasCas1 31080124

Symbol: EMCDynamicRasCas1
   Definitions
      At line 191 in file ..\SRC\SYSTEM\LPC3200.INC
   Uses
      None
Comment: EMCDynamicRasCas1 unused
EMCDynamicReadConfig 31080028

Symbol: EMCDynamicReadConfig
   Definitions
      At line 174 in file ..\SRC\SYSTEM\LPC3200.INC
   Uses
      None
Comment: EMCDynamicReadConfig unused
EMCDynamicRefresh 31080024

Symbol: EMCDynamicRefresh
   Definitions
      At line 173 in file ..\SRC\SYSTEM\LPC3200.INC
   Uses
      None
Comment: EMCDynamicRefresh unused
EMCDynamicSREX 31080038

Symbol: EMCDynamicSREX
   Definitions
      At line 177 in file ..\SRC\SYSTEM\LPC3200.INC
   Uses
      None
Comment: EMCDynamicSREX unused
EMCDynamicWR 31080044

Symbol: EMCDynamicWR
   Definitions
      At line 178 in file ..\SRC\SYSTEM\LPC3200.INC
   Uses
      None
Comment: EMCDynamicWR unused
EMCDynamicXSR 31080050



ARM Macro Assembler    Page 20 Alphabetic symbol ordering
Absolute symbols


Symbol: EMCDynamicXSR
   Definitions
      At line 181 in file ..\SRC\SYSTEM\LPC3200.INC
   Uses
      None
Comment: EMCDynamicXSR unused
EMCStaticConfig0 31080200

Symbol: EMCStaticConfig0
   Definitions
      At line 215 in file ..\SRC\SYSTEM\LPC3200.INC
   Uses
      None
Comment: EMCStaticConfig0 unused
EMCStaticConfig1 31080220

Symbol: EMCStaticConfig1
   Definitions
      At line 223 in file ..\SRC\SYSTEM\LPC3200.INC
   Uses
      None
Comment: EMCStaticConfig1 unused
EMCStaticConfig2 31080240

Symbol: EMCStaticConfig2
   Definitions
      At line 231 in file ..\SRC\SYSTEM\LPC3200.INC
   Uses
      None
Comment: EMCStaticConfig2 unused
EMCStaticConfig3 31080260

Symbol: EMCStaticConfig3
   Definitions
      At line 239 in file ..\SRC\SYSTEM\LPC3200.INC
   Uses
      None
Comment: EMCStaticConfig3 unused
EMCStaticExtendedWait 31080080

Symbol: EMCStaticExtendedWait
   Definitions
      At line 185 in file ..\SRC\SYSTEM\LPC3200.INC
   Uses
      None
Comment: EMCStaticExtendedWait unused
EMCStaticWaitOen0 31080208

Symbol: EMCStaticWaitOen0
   Definitions
      At line 217 in file ..\SRC\SYSTEM\LPC3200.INC
   Uses
      None
Comment: EMCStaticWaitOen0 unused
EMCStaticWaitOen1 31080228

Symbol: EMCStaticWaitOen1
   Definitions



ARM Macro Assembler    Page 21 Alphabetic symbol ordering
Absolute symbols

      At line 225 in file ..\SRC\SYSTEM\LPC3200.INC
   Uses
      None
Comment: EMCStaticWaitOen1 unused
EMCStaticWaitOen2 31080248

Symbol: EMCStaticWaitOen2
   Definitions
      At line 233 in file ..\SRC\SYSTEM\LPC3200.INC
   Uses
      None
Comment: EMCStaticWaitOen2 unused
EMCStaticWaitOen3 31080268

Symbol: EMCStaticWaitOen3
   Definitions
      At line 241 in file ..\SRC\SYSTEM\LPC3200.INC
   Uses
      None
Comment: EMCStaticWaitOen3 unused
EMCStaticWaitRd0 3108020C

Symbol: EMCStaticWaitRd0
   Definitions
      At line 218 in file ..\SRC\SYSTEM\LPC3200.INC
   Uses
      None
Comment: EMCStaticWaitRd0 unused
EMCStaticWaitRd1 3108022C

Symbol: EMCStaticWaitRd1
   Definitions
      At line 226 in file ..\SRC\SYSTEM\LPC3200.INC
   Uses
      None
Comment: EMCStaticWaitRd1 unused
EMCStaticWaitRd2 3108024C

Symbol: EMCStaticWaitRd2
   Definitions
      At line 234 in file ..\SRC\SYSTEM\LPC3200.INC
   Uses
      None
Comment: EMCStaticWaitRd2 unused
EMCStaticWaitRd3 3108026C

Symbol: EMCStaticWaitRd3
   Definitions
      At line 242 in file ..\SRC\SYSTEM\LPC3200.INC
   Uses
      None
Comment: EMCStaticWaitRd3 unused
EMCStaticWaitTurn0 31080218

Symbol: EMCStaticWaitTurn0
   Definitions
      At line 221 in file ..\SRC\SYSTEM\LPC3200.INC
   Uses
      None



ARM Macro Assembler    Page 22 Alphabetic symbol ordering
Absolute symbols

Comment: EMCStaticWaitTurn0 unused
EMCStaticWaitTurn1 31080238

Symbol: EMCStaticWaitTurn1
   Definitions
      At line 229 in file ..\SRC\SYSTEM\LPC3200.INC
   Uses
      None
Comment: EMCStaticWaitTurn1 unused
EMCStaticWaitTurn2 31080258

Symbol: EMCStaticWaitTurn2
   Definitions
      At line 237 in file ..\SRC\SYSTEM\LPC3200.INC
   Uses
      None
Comment: EMCStaticWaitTurn2 unused
EMCStaticWaitTurn3 31080278

Symbol: EMCStaticWaitTurn3
   Definitions
      At line 245 in file ..\SRC\SYSTEM\LPC3200.INC
   Uses
      None
Comment: EMCStaticWaitTurn3 unused
EMCStaticWaitWen0 31080204

Symbol: EMCStaticWaitWen0
   Definitions
      At line 216 in file ..\SRC\SYSTEM\LPC3200.INC
   Uses
      None
Comment: EMCStaticWaitWen0 unused
EMCStaticWaitWen1 31080224

Symbol: EMCStaticWaitWen1
   Definitions
      At line 224 in file ..\SRC\SYSTEM\LPC3200.INC
   Uses
      None
Comment: EMCStaticWaitWen1 unused
EMCStaticWaitWen2 31080244

Symbol: EMCStaticWaitWen2
   Definitions
      At line 232 in file ..\SRC\SYSTEM\LPC3200.INC
   Uses
      None
Comment: EMCStaticWaitWen2 unused
EMCStaticWaitWen3 31080264

Symbol: EMCStaticWaitWen3
   Definitions
      At line 240 in file ..\SRC\SYSTEM\LPC3200.INC
   Uses
      None
Comment: EMCStaticWaitWen3 unused
EMCStaticWaitWr0 31080214




ARM Macro Assembler    Page 23 Alphabetic symbol ordering
Absolute symbols

Symbol: EMCStaticWaitWr0
   Definitions
      At line 220 in file ..\SRC\SYSTEM\LPC3200.INC
   Uses
      None
Comment: EMCStaticWaitWr0 unused
EMCStaticWaitWr1 31080234

Symbol: EMCStaticWaitWr1
   Definitions
      At line 228 in file ..\SRC\SYSTEM\LPC3200.INC
   Uses
      None
Comment: EMCStaticWaitWr1 unused
EMCStaticWaitWr2 31080254

Symbol: EMCStaticWaitWr2
   Definitions
      At line 236 in file ..\SRC\SYSTEM\LPC3200.INC
   Uses
      None
Comment: EMCStaticWaitWr2 unused
EMCStaticWaitWr3 31080274

Symbol: EMCStaticWaitWr3
   Definitions
      At line 244 in file ..\SRC\SYSTEM\LPC3200.INC
   Uses
      None
Comment: EMCStaticWaitWr3 unused
EMCStaticwaitPage0 31080210

Symbol: EMCStaticwaitPage0
   Definitions
      At line 219 in file ..\SRC\SYSTEM\LPC3200.INC
   Uses
      None
Comment: EMCStaticwaitPage0 unused
EMCStaticwaitPage1 31080230

Symbol: EMCStaticwaitPage1
   Definitions
      At line 227 in file ..\SRC\SYSTEM\LPC3200.INC
   Uses
      None
Comment: EMCStaticwaitPage1 unused
EMCStaticwaitPage2 31080250

Symbol: EMCStaticwaitPage2
   Definitions
      At line 235 in file ..\SRC\SYSTEM\LPC3200.INC
   Uses
      None
Comment: EMCStaticwaitPage2 unused
EMCStaticwaitPage3 31080270

Symbol: EMCStaticwaitPage3
   Definitions
      At line 243 in file ..\SRC\SYSTEM\LPC3200.INC



ARM Macro Assembler    Page 24 Alphabetic symbol ordering
Absolute symbols

   Uses
      None
Comment: EMCStaticwaitPage3 unused
EMCStatus 31080004

Symbol: EMCStatus
   Definitions
      At line 170 in file ..\SRC\SYSTEM\LPC3200.INC
   Uses
      None
Comment: EMCStatus unused
EMC_STATIC_BASE_ADDR 31080200

Symbol: EMC_STATIC_BASE_ADDR
   Definitions
      At line 214 in file ..\SRC\SYSTEM\LPC3200.INC
   Uses
      At line 215 in file ..\SRC\SYSTEM\LPC3200.INC
      At line 216 in file ..\SRC\SYSTEM\LPC3200.INC
      At line 217 in file ..\SRC\SYSTEM\LPC3200.INC
      At line 218 in file ..\SRC\SYSTEM\LPC3200.INC
      At line 219 in file ..\SRC\SYSTEM\LPC3200.INC
      At line 220 in file ..\SRC\SYSTEM\LPC3200.INC
      At line 221 in file ..\SRC\SYSTEM\LPC3200.INC
      At line 223 in file ..\SRC\SYSTEM\LPC3200.INC
      At line 224 in file ..\SRC\SYSTEM\LPC3200.INC
      At line 225 in file ..\SRC\SYSTEM\LPC3200.INC
      At line 226 in file ..\SRC\SYSTEM\LPC3200.INC
      At line 227 in file ..\SRC\SYSTEM\LPC3200.INC
      At line 228 in file ..\SRC\SYSTEM\LPC3200.INC
      At line 229 in file ..\SRC\SYSTEM\LPC3200.INC
      At line 231 in file ..\SRC\SYSTEM\LPC3200.INC
      At line 232 in file ..\SRC\SYSTEM\LPC3200.INC
      At line 233 in file ..\SRC\SYSTEM\LPC3200.INC
      At line 234 in file ..\SRC\SYSTEM\LPC3200.INC
      At line 235 in file ..\SRC\SYSTEM\LPC3200.INC
      At line 236 in file ..\SRC\SYSTEM\LPC3200.INC
      At line 237 in file ..\SRC\SYSTEM\LPC3200.INC
      At line 239 in file ..\SRC\SYSTEM\LPC3200.INC
      At line 240 in file ..\SRC\SYSTEM\LPC3200.INC
      At line 241 in file ..\SRC\SYSTEM\LPC3200.INC
      At line 242 in file ..\SRC\SYSTEM\LPC3200.INC
      At line 243 in file ..\SRC\SYSTEM\LPC3200.INC
      At line 244 in file ..\SRC\SYSTEM\LPC3200.INC
      At line 245 in file ..\SRC\SYSTEM\LPC3200.INC

EOT_INT_CLR 310202A4

Symbol: EOT_INT_CLR
   Definitions
      At line 442 in file ..\SRC\SYSTEM\LPC3200.INC
   Uses
      None
Comment: EOT_INT_CLR unused
EOT_INT_SET 310202A8

Symbol: EOT_INT_SET
   Definitions
      At line 443 in file ..\SRC\SYSTEM\LPC3200.INC



ARM Macro Assembler    Page 25 Alphabetic symbol ordering
Absolute symbols

   Uses
      None
Comment: EOT_INT_SET unused
EOT_INT_STAT 310202A0

Symbol: EOT_INT_STAT
   Definitions
      At line 441 in file ..\SRC\SYSTEM\LPC3200.INC
   Uses
      None
Comment: EOT_INT_STAT unused
EP_DMA_DIS 3102028C

Symbol: EP_DMA_DIS
   Definitions
      At line 438 in file ..\SRC\SYSTEM\LPC3200.INC
   Uses
      None
Comment: EP_DMA_DIS unused
EP_DMA_EN 31020288

Symbol: EP_DMA_EN
   Definitions
      At line 437 in file ..\SRC\SYSTEM\LPC3200.INC
   Uses
      None
Comment: EP_DMA_EN unused
EP_DMA_STAT 31020284

Symbol: EP_DMA_STAT
   Definitions
      At line 436 in file ..\SRC\SYSTEM\LPC3200.INC
   Uses
      None
Comment: EP_DMA_STAT unused
EP_INDEX 31020248

Symbol: EP_INDEX
   Definitions
      At line 421 in file ..\SRC\SYSTEM\LPC3200.INC
   Uses
      None
Comment: EP_INDEX unused
EP_INT_CLR 31020238

Symbol: EP_INT_CLR
   Definitions
      At line 417 in file ..\SRC\SYSTEM\LPC3200.INC
   Uses
      None
Comment: EP_INT_CLR unused
EP_INT_EN 31020234

Symbol: EP_INT_EN
   Definitions
      At line 416 in file ..\SRC\SYSTEM\LPC3200.INC
   Uses
      None
Comment: EP_INT_EN unused



ARM Macro Assembler    Page 26 Alphabetic symbol ordering
Absolute symbols

EP_INT_PRIO 31020240

Symbol: EP_INT_PRIO
   Definitions
      At line 419 in file ..\SRC\SYSTEM\LPC3200.INC
   Uses
      None
Comment: EP_INT_PRIO unused
EP_INT_SET 3102023C

Symbol: EP_INT_SET
   Definitions
      At line 418 in file ..\SRC\SYSTEM\LPC3200.INC
   Uses
      None
Comment: EP_INT_SET unused
EP_INT_STAT 31020230

Symbol: EP_INT_STAT
   Definitions
      At line 415 in file ..\SRC\SYSTEM\LPC3200.INC
   Uses
      None
Comment: EP_INT_STAT unused
FLASHCLK_CTRL 400040C8

Symbol: FLASHCLK_CTRL
   Definitions
      At line 53 in file ..\SRC\SYSTEM\LPC3200.INC
   Uses
      None
Comment: FLASHCLK_CTRL unused
HCLKDIV_CTRL 40004040

Symbol: HCLKDIV_CTRL
   Definitions
      At line 34 in file ..\SRC\SYSTEM\LPC3200.INC
   Uses
      None
Comment: HCLKDIV_CTRL unused
HCLKPLL_CTRL 40004058

Symbol: HCLKPLL_CTRL
   Definitions
      At line 33 in file ..\SRC\SYSTEM\LPC3200.INC
   Uses
      None
Comment: HCLKPLL_CTRL unused
HSTIM_BASE_ADDR 40038000

Symbol: HSTIM_BASE_ADDR
   Definitions
      At line 779 in file ..\SRC\SYSTEM\LPC3200.INC
   Uses
      At line 780 in file ..\SRC\SYSTEM\LPC3200.INC
      At line 781 in file ..\SRC\SYSTEM\LPC3200.INC
      At line 782 in file ..\SRC\SYSTEM\LPC3200.INC
      At line 783 in file ..\SRC\SYSTEM\LPC3200.INC
      At line 784 in file ..\SRC\SYSTEM\LPC3200.INC



ARM Macro Assembler    Page 27 Alphabetic symbol ordering
Absolute symbols

      At line 785 in file ..\SRC\SYSTEM\LPC3200.INC
      At line 786 in file ..\SRC\SYSTEM\LPC3200.INC
      At line 787 in file ..\SRC\SYSTEM\LPC3200.INC
      At line 788 in file ..\SRC\SYSTEM\LPC3200.INC
      At line 789 in file ..\SRC\SYSTEM\LPC3200.INC
      At line 790 in file ..\SRC\SYSTEM\LPC3200.INC
      At line 791 in file ..\SRC\SYSTEM\LPC3200.INC

HSTIM_CCR 40038028

Symbol: HSTIM_CCR
   Definitions
      At line 789 in file ..\SRC\SYSTEM\LPC3200.INC
   Uses
      None
Comment: HSTIM_CCR unused
HSTIM_COUNTER 40038008

Symbol: HSTIM_COUNTER
   Definitions
      At line 782 in file ..\SRC\SYSTEM\LPC3200.INC
   Uses
      None
Comment: HSTIM_COUNTER unused
HSTIM_CR0 4003802C

Symbol: HSTIM_CR0
   Definitions
      At line 790 in file ..\SRC\SYSTEM\LPC3200.INC
   Uses
      None
Comment: HSTIM_CR0 unused
HSTIM_CR1 40038030

Symbol: HSTIM_CR1
   Definitions
      At line 791 in file ..\SRC\SYSTEM\LPC3200.INC
   Uses
      None
Comment: HSTIM_CR1 unused
HSTIM_CTRL 40038004

Symbol: HSTIM_CTRL
   Definitions
      At line 781 in file ..\SRC\SYSTEM\LPC3200.INC
   Uses
      None
Comment: HSTIM_CTRL unused
HSTIM_INT 40038000

Symbol: HSTIM_INT
   Definitions
      At line 780 in file ..\SRC\SYSTEM\LPC3200.INC
   Uses
      None
Comment: HSTIM_INT unused
HSTIM_MATCH0 40038018

Symbol: HSTIM_MATCH0



ARM Macro Assembler    Page 28 Alphabetic symbol ordering
Absolute symbols

   Definitions
      At line 786 in file ..\SRC\SYSTEM\LPC3200.INC
   Uses
      None
Comment: HSTIM_MATCH0 unused
HSTIM_MATCH1 4003801C

Symbol: HSTIM_MATCH1
   Definitions
      At line 787 in file ..\SRC\SYSTEM\LPC3200.INC
   Uses
      None
Comment: HSTIM_MATCH1 unused
HSTIM_MATCH2 40038020

Symbol: HSTIM_MATCH2
   Definitions
      At line 788 in file ..\SRC\SYSTEM\LPC3200.INC
   Uses
      None
Comment: HSTIM_MATCH2 unused
HSTIM_MCTRL 40038014

Symbol: HSTIM_MCTRL
   Definitions
      At line 785 in file ..\SRC\SYSTEM\LPC3200.INC
   Uses
      None
Comment: HSTIM_MCTRL unused
HSTIM_PCOUNT 40038010

Symbol: HSTIM_PCOUNT
   Definitions
      At line 784 in file ..\SRC\SYSTEM\LPC3200.INC
   Uses
      None
Comment: HSTIM_PCOUNT unused
HSTIM_PMATCH 4003800C

Symbol: HSTIM_PMATCH
   Definitions
      At line 783 in file ..\SRC\SYSTEM\LPC3200.INC
   Uses
      None
Comment: HSTIM_PMATCH unused
HSU1_CTRL 4001400C

Symbol: HSU1_CTRL
   Definitions
      At line 583 in file ..\SRC\SYSTEM\LPC3200.INC
   Uses
      None
Comment: HSU1_CTRL unused
HSU1_IIR 40014008

Symbol: HSU1_IIR
   Definitions
      At line 582 in file ..\SRC\SYSTEM\LPC3200.INC
   Uses



ARM Macro Assembler    Page 29 Alphabetic symbol ordering
Absolute symbols

      None
Comment: HSU1_IIR unused
HSU1_LEVEL 40014004

Symbol: HSU1_LEVEL
   Definitions
      At line 581 in file ..\SRC\SYSTEM\LPC3200.INC
   Uses
      None
Comment: HSU1_LEVEL unused
HSU1_RATE 40014010

Symbol: HSU1_RATE
   Definitions
      At line 584 in file ..\SRC\SYSTEM\LPC3200.INC
   Uses
      None
Comment: HSU1_RATE unused
HSU1_RX 40014000

Symbol: HSU1_RX
   Definitions
      At line 579 in file ..\SRC\SYSTEM\LPC3200.INC
   Uses
      None
Comment: HSU1_RX unused
HSU1_TX 40014000

Symbol: HSU1_TX
   Definitions
      At line 580 in file ..\SRC\SYSTEM\LPC3200.INC
   Uses
      None
Comment: HSU1_TX unused
HSU2_CTRL 4001800C

Symbol: HSU2_CTRL
   Definitions
      At line 591 in file ..\SRC\SYSTEM\LPC3200.INC
   Uses
      None
Comment: HSU2_CTRL unused
HSU2_IIR 40018008

Symbol: HSU2_IIR
   Definitions
      At line 590 in file ..\SRC\SYSTEM\LPC3200.INC
   Uses
      None
Comment: HSU2_IIR unused
HSU2_LEVEL 40018004

Symbol: HSU2_LEVEL
   Definitions
      At line 589 in file ..\SRC\SYSTEM\LPC3200.INC
   Uses
      None
Comment: HSU2_LEVEL unused
HSU2_RATE 40018010



ARM Macro Assembler    Page 30 Alphabetic symbol ordering
Absolute symbols


Symbol: HSU2_RATE
   Definitions
      At line 592 in file ..\SRC\SYSTEM\LPC3200.INC
   Uses
      None
Comment: HSU2_RATE unused
HSU2_RX 40018000

Symbol: HSU2_RX
   Definitions
      At line 587 in file ..\SRC\SYSTEM\LPC3200.INC
   Uses
      None
Comment: HSU2_RX unused
HSU2_TX 40018000

Symbol: HSU2_TX
   Definitions
      At line 588 in file ..\SRC\SYSTEM\LPC3200.INC
   Uses
      None
Comment: HSU2_TX unused
HSU7_CTRL 4001C00C

Symbol: HSU7_CTRL
   Definitions
      At line 599 in file ..\SRC\SYSTEM\LPC3200.INC
   Uses
      None
Comment: HSU7_CTRL unused
HSU7_IIR 4001C008

Symbol: HSU7_IIR
   Definitions
      At line 598 in file ..\SRC\SYSTEM\LPC3200.INC
   Uses
      None
Comment: HSU7_IIR unused
HSU7_LEVEL 4001C004

Symbol: HSU7_LEVEL
   Definitions
      At line 597 in file ..\SRC\SYSTEM\LPC3200.INC
   Uses
      None
Comment: HSU7_LEVEL unused
HSU7_RATE 4001C010

Symbol: HSU7_RATE
   Definitions
      At line 600 in file ..\SRC\SYSTEM\LPC3200.INC
   Uses
      None
Comment: HSU7_RATE unused
HSU7_RX 4001C000

Symbol: HSU7_RX
   Definitions



ARM Macro Assembler    Page 31 Alphabetic symbol ordering
Absolute symbols

      At line 595 in file ..\SRC\SYSTEM\LPC3200.INC
   Uses
      None
Comment: HSU7_RX unused
HSU7_TX 4001C000

Symbol: HSU7_TX
   Definitions
      At line 596 in file ..\SRC\SYSTEM\LPC3200.INC
   Uses
      None
Comment: HSU7_TX unused
HS_UART1_BASE_ADDR 40014000

Symbol: HS_UART1_BASE_ADDR
   Definitions
      At line 578 in file ..\SRC\SYSTEM\LPC3200.INC
   Uses
      At line 579 in file ..\SRC\SYSTEM\LPC3200.INC
      At line 580 in file ..\SRC\SYSTEM\LPC3200.INC
      At line 581 in file ..\SRC\SYSTEM\LPC3200.INC
      At line 582 in file ..\SRC\SYSTEM\LPC3200.INC
      At line 583 in file ..\SRC\SYSTEM\LPC3200.INC
      At line 584 in file ..\SRC\SYSTEM\LPC3200.INC

HS_UART2_BASE_ADDR 40018000

Symbol: HS_UART2_BASE_ADDR
   Definitions
      At line 586 in file ..\SRC\SYSTEM\LPC3200.INC
   Uses
      At line 587 in file ..\SRC\SYSTEM\LPC3200.INC
      At line 588 in file ..\SRC\SYSTEM\LPC3200.INC
      At line 589 in file ..\SRC\SYSTEM\LPC3200.INC
      At line 590 in file ..\SRC\SYSTEM\LPC3200.INC
      At line 591 in file ..\SRC\SYSTEM\LPC3200.INC
      At line 592 in file ..\SRC\SYSTEM\LPC3200.INC

HS_UART7_BASE_ADDR 4001C000

Symbol: HS_UART7_BASE_ADDR
   Definitions
      At line 594 in file ..\SRC\SYSTEM\LPC3200.INC
   Uses
      At line 595 in file ..\SRC\SYSTEM\LPC3200.INC
      At line 596 in file ..\SRC\SYSTEM\LPC3200.INC
      At line 597 in file ..\SRC\SYSTEM\LPC3200.INC
      At line 598 in file ..\SRC\SYSTEM\LPC3200.INC
      At line 599 in file ..\SRC\SYSTEM\LPC3200.INC
      At line 600 in file ..\SRC\SYSTEM\LPC3200.INC

HcBulkCurrentED 3102002C

Symbol: HcBulkCurrentED
   Definitions
      At line 464 in file ..\SRC\SYSTEM\LPC3200.INC
   Uses
      None
Comment: HcBulkCurrentED unused



ARM Macro Assembler    Page 32 Alphabetic symbol ordering
Absolute symbols

HcBulkHeadED 31020028

Symbol: HcBulkHeadED
   Definitions
      At line 463 in file ..\SRC\SYSTEM\LPC3200.INC
   Uses
      None
Comment: HcBulkHeadED unused
HcCommandStatus 31020008

Symbol: HcCommandStatus
   Definitions
      At line 455 in file ..\SRC\SYSTEM\LPC3200.INC
   Uses
      None
Comment: HcCommandStatus unused
HcControl 31020004

Symbol: HcControl
   Definitions
      At line 454 in file ..\SRC\SYSTEM\LPC3200.INC
   Uses
      None
Comment: HcControl unused
HcControlCurrentED 31020024

Symbol: HcControlCurrentED
   Definitions
      At line 462 in file ..\SRC\SYSTEM\LPC3200.INC
   Uses
      None
Comment: HcControlCurrentED unused
HcControlHeadED 31020020

Symbol: HcControlHeadED
   Definitions
      At line 461 in file ..\SRC\SYSTEM\LPC3200.INC
   Uses
      None
Comment: HcControlHeadED unused
HcDoneHead 31020030

Symbol: HcDoneHead
   Definitions
      At line 465 in file ..\SRC\SYSTEM\LPC3200.INC
   Uses
      None
Comment: HcDoneHead unused
HcFmInterval 31020034

Symbol: HcFmInterval
   Definitions
      At line 466 in file ..\SRC\SYSTEM\LPC3200.INC
   Uses
      None
Comment: HcFmInterval unused
HcFmNumber 3102003C

Symbol: HcFmNumber



ARM Macro Assembler    Page 33 Alphabetic symbol ordering
Absolute symbols

   Definitions
      At line 468 in file ..\SRC\SYSTEM\LPC3200.INC
   Uses
      None
Comment: HcFmNumber unused
HcFmRemaining 31020038

Symbol: HcFmRemaining
   Definitions
      At line 467 in file ..\SRC\SYSTEM\LPC3200.INC
   Uses
      None
Comment: HcFmRemaining unused
HcHCCA 31020018

Symbol: HcHCCA
   Definitions
      At line 459 in file ..\SRC\SYSTEM\LPC3200.INC
   Uses
      None
Comment: HcHCCA unused
HcInterruptDisable 31020014

Symbol: HcInterruptDisable
   Definitions
      At line 458 in file ..\SRC\SYSTEM\LPC3200.INC
   Uses
      None
Comment: HcInterruptDisable unused
HcInterruptEnable 31020010

Symbol: HcInterruptEnable
   Definitions
      At line 457 in file ..\SRC\SYSTEM\LPC3200.INC
   Uses
      None
Comment: HcInterruptEnable unused
HcInterruptStatus 3102000C

Symbol: HcInterruptStatus
   Definitions
      At line 456 in file ..\SRC\SYSTEM\LPC3200.INC
   Uses
      None
Comment: HcInterruptStatus unused
HcLSThreshold 31020044

Symbol: HcLSThreshold
   Definitions
      At line 470 in file ..\SRC\SYSTEM\LPC3200.INC
   Uses
      None
Comment: HcLSThreshold unused
HcModuleID 3102005C

Symbol: HcModuleID
   Definitions
      At line 476 in file ..\SRC\SYSTEM\LPC3200.INC
   Uses



ARM Macro Assembler    Page 34 Alphabetic symbol ordering
Absolute symbols

      None
Comment: HcModuleID unused
HcPeriodCurrentED 3102001C

Symbol: HcPeriodCurrentED
   Definitions
      At line 460 in file ..\SRC\SYSTEM\LPC3200.INC
   Uses
      None
Comment: HcPeriodCurrentED unused
HcPeriodicStart 31020040

Symbol: HcPeriodicStart
   Definitions
      At line 469 in file ..\SRC\SYSTEM\LPC3200.INC
   Uses
      None
Comment: HcPeriodicStart unused
HcRevision 31020000

Symbol: HcRevision
   Definitions
      At line 453 in file ..\SRC\SYSTEM\LPC3200.INC
   Uses
      None
Comment: HcRevision unused
HcRhDescriptorA 31020048

Symbol: HcRhDescriptorA
   Definitions
      At line 471 in file ..\SRC\SYSTEM\LPC3200.INC
   Uses
      None
Comment: HcRhDescriptorA unused
HcRhDescriptorB 3102004C

Symbol: HcRhDescriptorB
   Definitions
      At line 472 in file ..\SRC\SYSTEM\LPC3200.INC
   Uses
      None
Comment: HcRhDescriptorB unused
HcRhPortStatus1 31020054

Symbol: HcRhPortStatus1
   Definitions
      At line 474 in file ..\SRC\SYSTEM\LPC3200.INC
   Uses
      None
Comment: HcRhPortStatus1 unused
HcRhPortStatus2 31020058

Symbol: HcRhPortStatus2
   Definitions
      At line 475 in file ..\SRC\SYSTEM\LPC3200.INC
   Uses
      None
Comment: HcRhPortStatus2 unused
HcRhStatus 31020050



ARM Macro Assembler    Page 35 Alphabetic symbol ordering
Absolute symbols


Symbol: HcRhStatus
   Definitions
      At line 473 in file ..\SRC\SYSTEM\LPC3200.INC
   Uses
      None
Comment: HcRhStatus unused
I2C1_ADR 400A0014

Symbol: I2C1_ADR
   Definitions
      At line 655 in file ..\SRC\SYSTEM\LPC3200.INC
   Uses
      None
Comment: I2C1_ADR unused
I2C1_BASE_ADDR 400A0000

Symbol: I2C1_BASE_ADDR
   Definitions
      At line 648 in file ..\SRC\SYSTEM\LPC3200.INC
   Uses
      At line 649 in file ..\SRC\SYSTEM\LPC3200.INC
      At line 650 in file ..\SRC\SYSTEM\LPC3200.INC
      At line 651 in file ..\SRC\SYSTEM\LPC3200.INC
      At line 652 in file ..\SRC\SYSTEM\LPC3200.INC
      At line 653 in file ..\SRC\SYSTEM\LPC3200.INC
      At line 654 in file ..\SRC\SYSTEM\LPC3200.INC
      At line 655 in file ..\SRC\SYSTEM\LPC3200.INC
      At line 656 in file ..\SRC\SYSTEM\LPC3200.INC
      At line 657 in file ..\SRC\SYSTEM\LPC3200.INC
      At line 658 in file ..\SRC\SYSTEM\LPC3200.INC
      At line 659 in file ..\SRC\SYSTEM\LPC3200.INC
      At line 660 in file ..\SRC\SYSTEM\LPC3200.INC
      At line 661 in file ..\SRC\SYSTEM\LPC3200.INC

I2C1_CLKHI 400A000C

Symbol: I2C1_CLKHI
   Definitions
      At line 653 in file ..\SRC\SYSTEM\LPC3200.INC
   Uses
      None
Comment: I2C1_CLKHI unused
I2C1_CLKLO 400A0010

Symbol: I2C1_CLKLO
   Definitions
      At line 654 in file ..\SRC\SYSTEM\LPC3200.INC
   Uses
      None
Comment: I2C1_CLKLO unused
I2C1_CTRL 400A0008

Symbol: I2C1_CTRL
   Definitions
      At line 652 in file ..\SRC\SYSTEM\LPC3200.INC
   Uses
      None
Comment: I2C1_CTRL unused



ARM Macro Assembler    Page 36 Alphabetic symbol ordering
Absolute symbols

I2C1_RX 400A0000

Symbol: I2C1_RX
   Definitions
      At line 649 in file ..\SRC\SYSTEM\LPC3200.INC
   Uses
      None
Comment: I2C1_RX unused
I2C1_RXB 400A0020

Symbol: I2C1_RXB
   Definitions
      At line 658 in file ..\SRC\SYSTEM\LPC3200.INC
   Uses
      None
Comment: I2C1_RXB unused
I2C1_RXFL 400A0018

Symbol: I2C1_RXFL
   Definitions
      At line 656 in file ..\SRC\SYSTEM\LPC3200.INC
   Uses
      None
Comment: I2C1_RXFL unused
I2C1_STAT 400A0004

Symbol: I2C1_STAT
   Definitions
      At line 651 in file ..\SRC\SYSTEM\LPC3200.INC
   Uses
      None
Comment: I2C1_STAT unused
I2C1_S_TX 400A0028

Symbol: I2C1_S_TX
   Definitions
      At line 660 in file ..\SRC\SYSTEM\LPC3200.INC
   Uses
      None
Comment: I2C1_S_TX unused
I2C1_S_TXFL 400A002C

Symbol: I2C1_S_TXFL
   Definitions
      At line 661 in file ..\SRC\SYSTEM\LPC3200.INC
   Uses
      None
Comment: I2C1_S_TXFL unused
I2C1_TX 400A0000

Symbol: I2C1_TX
   Definitions
      At line 650 in file ..\SRC\SYSTEM\LPC3200.INC
   Uses
      None
Comment: I2C1_TX unused
I2C1_TXB 400A0024

Symbol: I2C1_TXB



ARM Macro Assembler    Page 37 Alphabetic symbol ordering
Absolute symbols

   Definitions
      At line 659 in file ..\SRC\SYSTEM\LPC3200.INC
   Uses
      None
Comment: I2C1_TXB unused
I2C1_TXFL 400A001C

Symbol: I2C1_TXFL
   Definitions
      At line 657 in file ..\SRC\SYSTEM\LPC3200.INC
   Uses
      None
Comment: I2C1_TXFL unused
I2C2_ADR 400A8014

Symbol: I2C2_ADR
   Definitions
      At line 670 in file ..\SRC\SYSTEM\LPC3200.INC
   Uses
      None
Comment: I2C2_ADR unused
I2C2_BASE_ADDR 400A8000

Symbol: I2C2_BASE_ADDR
   Definitions
      At line 663 in file ..\SRC\SYSTEM\LPC3200.INC
   Uses
      At line 664 in file ..\SRC\SYSTEM\LPC3200.INC
      At line 665 in file ..\SRC\SYSTEM\LPC3200.INC
      At line 666 in file ..\SRC\SYSTEM\LPC3200.INC
      At line 667 in file ..\SRC\SYSTEM\LPC3200.INC
      At line 668 in file ..\SRC\SYSTEM\LPC3200.INC
      At line 669 in file ..\SRC\SYSTEM\LPC3200.INC
      At line 670 in file ..\SRC\SYSTEM\LPC3200.INC
      At line 671 in file ..\SRC\SYSTEM\LPC3200.INC
      At line 672 in file ..\SRC\SYSTEM\LPC3200.INC
      At line 673 in file ..\SRC\SYSTEM\LPC3200.INC
      At line 674 in file ..\SRC\SYSTEM\LPC3200.INC
      At line 675 in file ..\SRC\SYSTEM\LPC3200.INC
      At line 676 in file ..\SRC\SYSTEM\LPC3200.INC

I2C2_CLKHI 400A800C

Symbol: I2C2_CLKHI
   Definitions
      At line 668 in file ..\SRC\SYSTEM\LPC3200.INC
   Uses
      None
Comment: I2C2_CLKHI unused
I2C2_CLKLO 400A8010

Symbol: I2C2_CLKLO
   Definitions
      At line 669 in file ..\SRC\SYSTEM\LPC3200.INC
   Uses
      None
Comment: I2C2_CLKLO unused
I2C2_CTRL 400A8008




ARM Macro Assembler    Page 38 Alphabetic symbol ordering
Absolute symbols

Symbol: I2C2_CTRL
   Definitions
      At line 667 in file ..\SRC\SYSTEM\LPC3200.INC
   Uses
      None
Comment: I2C2_CTRL unused
I2C2_RX 400A8000

Symbol: I2C2_RX
   Definitions
      At line 664 in file ..\SRC\SYSTEM\LPC3200.INC
   Uses
      None
Comment: I2C2_RX unused
I2C2_RXB 400A8020

Symbol: I2C2_RXB
   Definitions
      At line 673 in file ..\SRC\SYSTEM\LPC3200.INC
   Uses
      None
Comment: I2C2_RXB unused
I2C2_RXFL 400A8018

Symbol: I2C2_RXFL
   Definitions
      At line 671 in file ..\SRC\SYSTEM\LPC3200.INC
   Uses
      None
Comment: I2C2_RXFL unused
I2C2_STAT 400A8004

Symbol: I2C2_STAT
   Definitions
      At line 666 in file ..\SRC\SYSTEM\LPC3200.INC
   Uses
      None
Comment: I2C2_STAT unused
I2C2_S_TX 400A8028

Symbol: I2C2_S_TX
   Definitions
      At line 675 in file ..\SRC\SYSTEM\LPC3200.INC
   Uses
      None
Comment: I2C2_S_TX unused
I2C2_S_TXFL 400A802C

Symbol: I2C2_S_TXFL
   Definitions
      At line 676 in file ..\SRC\SYSTEM\LPC3200.INC
   Uses
      None
Comment: I2C2_S_TXFL unused
I2C2_TX 400A8000

Symbol: I2C2_TX
   Definitions
      At line 665 in file ..\SRC\SYSTEM\LPC3200.INC



ARM Macro Assembler    Page 39 Alphabetic symbol ordering
Absolute symbols

   Uses
      None
Comment: I2C2_TX unused
I2C2_TXB 400A8024

Symbol: I2C2_TXB
   Definitions
      At line 674 in file ..\SRC\SYSTEM\LPC3200.INC
   Uses
      None
Comment: I2C2_TXB unused
I2C2_TXFL 400A801C

Symbol: I2C2_TXFL
   Definitions
      At line 672 in file ..\SRC\SYSTEM\LPC3200.INC
   Uses
      None
Comment: I2C2_TXFL unused
I2CCLK_CTRL 400040AC

Symbol: I2CCLK_CTRL
   Definitions
      At line 59 in file ..\SRC\SYSTEM\LPC3200.INC
   Uses
      None
Comment: I2CCLK_CTRL unused
I2C_CLKHI 3102030C

Symbol: I2C_CLKHI
   Definitions
      At line 493 in file ..\SRC\SYSTEM\LPC3200.INC
   Uses
      None
Comment: I2C_CLKHI unused
I2C_CLKLO 31020310

Symbol: I2C_CLKLO
   Definitions
      At line 494 in file ..\SRC\SYSTEM\LPC3200.INC
   Uses
      None
Comment: I2C_CLKLO unused
I2C_CTL 31020308

Symbol: I2C_CTL
   Definitions
      At line 492 in file ..\SRC\SYSTEM\LPC3200.INC
   Uses
      None
Comment: I2C_CTL unused
I2C_RX 31020300

Symbol: I2C_RX
   Definitions
      At line 489 in file ..\SRC\SYSTEM\LPC3200.INC
   Uses
      None
Comment: I2C_RX unused



ARM Macro Assembler    Page 40 Alphabetic symbol ordering
Absolute symbols

I2C_STS 31020304

Symbol: I2C_STS
   Definitions
      At line 491 in file ..\SRC\SYSTEM\LPC3200.INC
   Uses
      None
Comment: I2C_STS unused
I2C_TX 31020300

Symbol: I2C_TX
   Definitions
      At line 490 in file ..\SRC\SYSTEM\LPC3200.INC
   Uses
      None
Comment: I2C_TX unused
I2S0DAI 2009C004

Symbol: I2S0DAI
   Definitions
      At line 680 in file ..\SRC\SYSTEM\LPC3200.INC
   Uses
      None
Comment: I2S0DAI unused
I2S0DAO 2009C000

Symbol: I2S0DAO
   Definitions
      At line 679 in file ..\SRC\SYSTEM\LPC3200.INC
   Uses
      None
Comment: I2S0DAO unused
I2S0DMA0 2009C014

Symbol: I2S0DMA0
   Definitions
      At line 684 in file ..\SRC\SYSTEM\LPC3200.INC
   Uses
      None
Comment: I2S0DMA0 unused
I2S0DMA1 2009C018

Symbol: I2S0DMA1
   Definitions
      At line 685 in file ..\SRC\SYSTEM\LPC3200.INC
   Uses
      None
Comment: I2S0DMA1 unused
I2S0IRQ 2009C01C

Symbol: I2S0IRQ
   Definitions
      At line 686 in file ..\SRC\SYSTEM\LPC3200.INC
   Uses
      None
Comment: I2S0IRQ unused
I2S0RXFIFO 2009C00C

Symbol: I2S0RXFIFO



ARM Macro Assembler    Page 41 Alphabetic symbol ordering
Absolute symbols

   Definitions
      At line 682 in file ..\SRC\SYSTEM\LPC3200.INC
   Uses
      None
Comment: I2S0RXFIFO unused
I2S0RXRATE 2009C024

Symbol: I2S0RXRATE
   Definitions
      At line 688 in file ..\SRC\SYSTEM\LPC3200.INC
   Uses
      None
Comment: I2S0RXRATE unused
I2S0STATE 2009C010

Symbol: I2S0STATE
   Definitions
      At line 683 in file ..\SRC\SYSTEM\LPC3200.INC
   Uses
      None
Comment: I2S0STATE unused
I2S0TXFIFO 2009C008

Symbol: I2S0TXFIFO
   Definitions
      At line 681 in file ..\SRC\SYSTEM\LPC3200.INC
   Uses
      None
Comment: I2S0TXFIFO unused
I2S0TXRATE 2009C020

Symbol: I2S0TXRATE
   Definitions
      At line 687 in file ..\SRC\SYSTEM\LPC3200.INC
   Uses
      None
Comment: I2S0TXRATE unused
I2S0_BASE_ADDR 20094000

Symbol: I2S0_BASE_ADDR
   Definitions
      At line 678 in file ..\SRC\SYSTEM\LPC3200.INC
   Uses
      None
Comment: I2S0_BASE_ADDR unused
I2S1DAI 2009C004

Symbol: I2S1DAI
   Definitions
      At line 692 in file ..\SRC\SYSTEM\LPC3200.INC
   Uses
      None
Comment: I2S1DAI unused
I2S1DAO 2009C000

Symbol: I2S1DAO
   Definitions
      At line 691 in file ..\SRC\SYSTEM\LPC3200.INC
   Uses



ARM Macro Assembler    Page 42 Alphabetic symbol ordering
Absolute symbols

      None
Comment: I2S1DAO unused
I2S1DMA0 2009C014

Symbol: I2S1DMA0
   Definitions
      At line 696 in file ..\SRC\SYSTEM\LPC3200.INC
   Uses
      None
Comment: I2S1DMA0 unused
I2S1DMA1 2009C018

Symbol: I2S1DMA1
   Definitions
      At line 697 in file ..\SRC\SYSTEM\LPC3200.INC
   Uses
      None
Comment: I2S1DMA1 unused
I2S1IRQ 2009C01C

Symbol: I2S1IRQ
   Definitions
      At line 698 in file ..\SRC\SYSTEM\LPC3200.INC
   Uses
      None
Comment: I2S1IRQ unused
I2S1RXFIFO 2009C00C

Symbol: I2S1RXFIFO
   Definitions
      At line 694 in file ..\SRC\SYSTEM\LPC3200.INC
   Uses
      None
Comment: I2S1RXFIFO unused
I2S1RXRATE 2009C024

Symbol: I2S1RXRATE
   Definitions
      At line 700 in file ..\SRC\SYSTEM\LPC3200.INC
   Uses
      None
Comment: I2S1RXRATE unused
I2S1STATE 2009C010

Symbol: I2S1STATE
   Definitions
      At line 695 in file ..\SRC\SYSTEM\LPC3200.INC
   Uses
      None
Comment: I2S1STATE unused
I2S1TXFIFO 2009C008

Symbol: I2S1TXFIFO
   Definitions
      At line 693 in file ..\SRC\SYSTEM\LPC3200.INC
   Uses
      None
Comment: I2S1TXFIFO unused
I2S1TXRATE 2009C020



ARM Macro Assembler    Page 43 Alphabetic symbol ordering
Absolute symbols


Symbol: I2S1TXRATE
   Definitions
      At line 699 in file ..\SRC\SYSTEM\LPC3200.INC
   Uses
      None
Comment: I2S1TXRATE unused
I2S1_BASE_ADDR 2009C000

Symbol: I2S1_BASE_ADDR
   Definitions
      At line 690 in file ..\SRC\SYSTEM\LPC3200.INC
   Uses
      At line 679 in file ..\SRC\SYSTEM\LPC3200.INC
      At line 680 in file ..\SRC\SYSTEM\LPC3200.INC
      At line 681 in file ..\SRC\SYSTEM\LPC3200.INC
      At line 682 in file ..\SRC\SYSTEM\LPC3200.INC
      At line 683 in file ..\SRC\SYSTEM\LPC3200.INC
      At line 684 in file ..\SRC\SYSTEM\LPC3200.INC
      At line 685 in file ..\SRC\SYSTEM\LPC3200.INC
      At line 686 in file ..\SRC\SYSTEM\LPC3200.INC
      At line 687 in file ..\SRC\SYSTEM\LPC3200.INC
      At line 688 in file ..\SRC\SYSTEM\LPC3200.INC
      At line 691 in file ..\SRC\SYSTEM\LPC3200.INC
      At line 692 in file ..\SRC\SYSTEM\LPC3200.INC
      At line 693 in file ..\SRC\SYSTEM\LPC3200.INC
      At line 694 in file ..\SRC\SYSTEM\LPC3200.INC
      At line 695 in file ..\SRC\SYSTEM\LPC3200.INC
      At line 696 in file ..\SRC\SYSTEM\LPC3200.INC
      At line 697 in file ..\SRC\SYSTEM\LPC3200.INC
      At line 698 in file ..\SRC\SYSTEM\LPC3200.INC
      At line 699 in file ..\SRC\SYSTEM\LPC3200.INC
      At line 700 in file ..\SRC\SYSTEM\LPC3200.INC

I2S_CTRL 4000407C

Symbol: I2S_CTRL
   Definitions
      At line 56 in file ..\SRC\SYSTEM\LPC3200.INC
   Uses
      None
Comment: I2S_CTRL unused
IRDACLK 400040E0

Symbol: IRDACLK
   Definitions
      At line 571 in file ..\SRC\SYSTEM\LPC3200.INC
   Uses
      None
Comment: IRDACLK unused
IRQ32Mode 00000012

Symbol: IRQ32Mode
   Definitions
      At line 33 in file ..\SRC\SYSTEM\vicControl.s
   Uses
      At line 348 in file ..\SRC\SYSTEM\vicControl.s
Comment: IRQ32Mode used once
KEYCLK_CTRL 400040B0



ARM Macro Assembler    Page 44 Alphabetic symbol ordering
Absolute symbols


Symbol: KEYCLK_CTRL
   Definitions
      At line 63 in file ..\SRC\SYSTEM\LPC3200.INC
   Uses
      None
Comment: KEYCLK_CTRL unused
KS_BASE_ADDR 40050000

Symbol: KS_BASE_ADDR
   Definitions
      At line 337 in file ..\SRC\SYSTEM\LPC3200.INC
   Uses
      At line 338 in file ..\SRC\SYSTEM\LPC3200.INC
      At line 339 in file ..\SRC\SYSTEM\LPC3200.INC
      At line 340 in file ..\SRC\SYSTEM\LPC3200.INC
      At line 341 in file ..\SRC\SYSTEM\LPC3200.INC
      At line 342 in file ..\SRC\SYSTEM\LPC3200.INC
      At line 343 in file ..\SRC\SYSTEM\LPC3200.INC
      At line 344 in file ..\SRC\SYSTEM\LPC3200.INC
      At line 345 in file ..\SRC\SYSTEM\LPC3200.INC
      At line 346 in file ..\SRC\SYSTEM\LPC3200.INC
      At line 347 in file ..\SRC\SYSTEM\LPC3200.INC
      At line 348 in file ..\SRC\SYSTEM\LPC3200.INC
      At line 349 in file ..\SRC\SYSTEM\LPC3200.INC
      At line 350 in file ..\SRC\SYSTEM\LPC3200.INC
      At line 351 in file ..\SRC\SYSTEM\LPC3200.INC

KS_DATA0 40050040

Symbol: KS_DATA0
   Definitions
      At line 344 in file ..\SRC\SYSTEM\LPC3200.INC
   Uses
      None
Comment: KS_DATA0 unused
KS_DATA1 40050044

Symbol: KS_DATA1
   Definitions
      At line 345 in file ..\SRC\SYSTEM\LPC3200.INC
   Uses
      None
Comment: KS_DATA1 unused
KS_DATA2 40050048

Symbol: KS_DATA2
   Definitions
      At line 346 in file ..\SRC\SYSTEM\LPC3200.INC
   Uses
      None
Comment: KS_DATA2 unused
KS_DATA3 4005004C

Symbol: KS_DATA3
   Definitions
      At line 347 in file ..\SRC\SYSTEM\LPC3200.INC
   Uses
      None



ARM Macro Assembler    Page 45 Alphabetic symbol ordering
Absolute symbols

Comment: KS_DATA3 unused
KS_DATA4 40050050

Symbol: KS_DATA4
   Definitions
      At line 348 in file ..\SRC\SYSTEM\LPC3200.INC
   Uses
      None
Comment: KS_DATA4 unused
KS_DATA5 40050054

Symbol: KS_DATA5
   Definitions
      At line 349 in file ..\SRC\SYSTEM\LPC3200.INC
   Uses
      None
Comment: KS_DATA5 unused
KS_DATA6 40050058

Symbol: KS_DATA6
   Definitions
      At line 350 in file ..\SRC\SYSTEM\LPC3200.INC
   Uses
      None
Comment: KS_DATA6 unused
KS_DATA7 4005005C

Symbol: KS_DATA7
   Definitions
      At line 351 in file ..\SRC\SYSTEM\LPC3200.INC
   Uses
      None
Comment: KS_DATA7 unused
KS_DEB 40050000

Symbol: KS_DEB
   Definitions
      At line 338 in file ..\SRC\SYSTEM\LPC3200.INC
   Uses
      None
Comment: KS_DEB unused
KS_FAST_TST 40050010

Symbol: KS_FAST_TST
   Definitions
      At line 342 in file ..\SRC\SYSTEM\LPC3200.INC
   Uses
      None
Comment: KS_FAST_TST unused
KS_IRQ 40050008

Symbol: KS_IRQ
   Definitions
      At line 340 in file ..\SRC\SYSTEM\LPC3200.INC
   Uses
      None
Comment: KS_IRQ unused
KS_MATRIX_DIM 40050014




ARM Macro Assembler    Page 46 Alphabetic symbol ordering
Absolute symbols

Symbol: KS_MATRIX_DIM
   Definitions
      At line 343 in file ..\SRC\SYSTEM\LPC3200.INC
   Uses
      None
Comment: KS_MATRIX_DIM unused
KS_SCAN_CTL 4005000C

Symbol: KS_SCAN_CTL
   Definitions
      At line 341 in file ..\SRC\SYSTEM\LPC3200.INC
   Uses
      None
Comment: KS_SCAN_CTL unused
KS_STATE_COND 40050004

Symbol: KS_STATE_COND
   Definitions
      At line 339 in file ..\SRC\SYSTEM\LPC3200.INC
   Uses
      None
Comment: KS_STATE_COND unused
LCDCLK_CTRL 40004054

Symbol: LCDCLK_CTRL
   Definitions
      At line 55 in file ..\SRC\SYSTEM\LPC3200.INC
   Uses
      None
Comment: LCDCLK_CTRL unused
LCD_BASE_ADDR 31040000

Symbol: LCD_BASE_ADDR
   Definitions
      At line 288 in file ..\SRC\SYSTEM\LPC3200.INC
   Uses
      At line 289 in file ..\SRC\SYSTEM\LPC3200.INC
      At line 290 in file ..\SRC\SYSTEM\LPC3200.INC
      At line 291 in file ..\SRC\SYSTEM\LPC3200.INC
      At line 292 in file ..\SRC\SYSTEM\LPC3200.INC
      At line 293 in file ..\SRC\SYSTEM\LPC3200.INC
      At line 294 in file ..\SRC\SYSTEM\LPC3200.INC
      At line 295 in file ..\SRC\SYSTEM\LPC3200.INC
      At line 296 in file ..\SRC\SYSTEM\LPC3200.INC
      At line 297 in file ..\SRC\SYSTEM\LPC3200.INC
      At line 298 in file ..\SRC\SYSTEM\LPC3200.INC
      At line 299 in file ..\SRC\SYSTEM\LPC3200.INC
      At line 300 in file ..\SRC\SYSTEM\LPC3200.INC
      At line 301 in file ..\SRC\SYSTEM\LPC3200.INC
      At line 303 in file ..\SRC\SYSTEM\LPC3200.INC
      At line 305 in file ..\SRC\SYSTEM\LPC3200.INC
      At line 306 in file ..\SRC\SYSTEM\LPC3200.INC
      At line 307 in file ..\SRC\SYSTEM\LPC3200.INC
      At line 308 in file ..\SRC\SYSTEM\LPC3200.INC
      At line 309 in file ..\SRC\SYSTEM\LPC3200.INC
      At line 310 in file ..\SRC\SYSTEM\LPC3200.INC
      At line 311 in file ..\SRC\SYSTEM\LPC3200.INC
      At line 312 in file ..\SRC\SYSTEM\LPC3200.INC
      At line 313 in file ..\SRC\SYSTEM\LPC3200.INC



ARM Macro Assembler    Page 47 Alphabetic symbol ordering
Absolute symbols

      At line 314 in file ..\SRC\SYSTEM\LPC3200.INC
      At line 315 in file ..\SRC\SYSTEM\LPC3200.INC

LCD_CTRL 31040018

Symbol: LCD_CTRL
   Definitions
      At line 295 in file ..\SRC\SYSTEM\LPC3200.INC
   Uses
      None
Comment: LCD_CTRL unused
LCD_INTCLR 31040028

Symbol: LCD_INTCLR
   Definitions
      At line 299 in file ..\SRC\SYSTEM\LPC3200.INC
   Uses
      None
Comment: LCD_INTCLR unused
LCD_INTMSK 3104001C

Symbol: LCD_INTMSK
   Definitions
      At line 296 in file ..\SRC\SYSTEM\LPC3200.INC
   Uses
      None
Comment: LCD_INTMSK unused
LCD_INTRAW 31040020

Symbol: LCD_INTRAW
   Definitions
      At line 297 in file ..\SRC\SYSTEM\LPC3200.INC
   Uses
      None
Comment: LCD_INTRAW unused
LCD_INTSTAT 31040024

Symbol: LCD_INTSTAT
   Definitions
      At line 298 in file ..\SRC\SYSTEM\LPC3200.INC
   Uses
      None
Comment: LCD_INTSTAT unused
LCD_LE 3104000C

Symbol: LCD_LE
   Definitions
      At line 292 in file ..\SRC\SYSTEM\LPC3200.INC
   Uses
      None
Comment: LCD_LE unused
LCD_LPBASE 31040014

Symbol: LCD_LPBASE
   Definitions
      At line 294 in file ..\SRC\SYSTEM\LPC3200.INC
   Uses
      None
Comment: LCD_LPBASE unused



ARM Macro Assembler    Page 48 Alphabetic symbol ordering
Absolute symbols

LCD_LPCURR 31040030

Symbol: LCD_LPCURR
   Definitions
      At line 301 in file ..\SRC\SYSTEM\LPC3200.INC
   Uses
      None
Comment: LCD_LPCURR unused
LCD_PAL 31040200

Symbol: LCD_PAL
   Definitions
      At line 303 in file ..\SRC\SYSTEM\LPC3200.INC
   Uses
      None
Comment: LCD_PAL unused
LCD_POL 31040008

Symbol: LCD_POL
   Definitions
      At line 291 in file ..\SRC\SYSTEM\LPC3200.INC
   Uses
      None
Comment: LCD_POL unused
LCD_TIMH 31040000

Symbol: LCD_TIMH
   Definitions
      At line 289 in file ..\SRC\SYSTEM\LPC3200.INC
   Uses
      None
Comment: LCD_TIMH unused
LCD_TIMV 31040004

Symbol: LCD_TIMV
   Definitions
      At line 290 in file ..\SRC\SYSTEM\LPC3200.INC
   Uses
      None
Comment: LCD_TIMV unused
LCD_UPBASE 31040010

Symbol: LCD_UPBASE
   Definitions
      At line 293 in file ..\SRC\SYSTEM\LPC3200.INC
   Uses
      None
Comment: LCD_UPBASE unused
LCD_UPCURR 3104002C

Symbol: LCD_UPCURR
   Definitions
      At line 300 in file ..\SRC\SYSTEM\LPC3200.INC
   Uses
      None
Comment: LCD_UPCURR unused
MACCLK_CTRL 40004090

Symbol: MACCLK_CTRL



ARM Macro Assembler    Page 49 Alphabetic symbol ordering
Absolute symbols

   Definitions
      At line 54 in file ..\SRC\SYSTEM\LPC3200.INC
   Uses
      None
Comment: MACCLK_CTRL unused
MAC_BASE_ADDR 31060000

Symbol: MAC_BASE_ADDR
   Definitions
      At line 353 in file ..\SRC\SYSTEM\LPC3200.INC
   Uses
      At line 354 in file ..\SRC\SYSTEM\LPC3200.INC
      At line 355 in file ..\SRC\SYSTEM\LPC3200.INC
      At line 356 in file ..\SRC\SYSTEM\LPC3200.INC
      At line 357 in file ..\SRC\SYSTEM\LPC3200.INC
      At line 358 in file ..\SRC\SYSTEM\LPC3200.INC
      At line 359 in file ..\SRC\SYSTEM\LPC3200.INC
      At line 360 in file ..\SRC\SYSTEM\LPC3200.INC
      At line 361 in file ..\SRC\SYSTEM\LPC3200.INC
      At line 362 in file ..\SRC\SYSTEM\LPC3200.INC
      At line 363 in file ..\SRC\SYSTEM\LPC3200.INC
      At line 364 in file ..\SRC\SYSTEM\LPC3200.INC
      At line 365 in file ..\SRC\SYSTEM\LPC3200.INC
      At line 366 in file ..\SRC\SYSTEM\LPC3200.INC
      At line 367 in file ..\SRC\SYSTEM\LPC3200.INC
      At line 369 in file ..\SRC\SYSTEM\LPC3200.INC
      At line 370 in file ..\SRC\SYSTEM\LPC3200.INC
      At line 371 in file ..\SRC\SYSTEM\LPC3200.INC
      At line 373 in file ..\SRC\SYSTEM\LPC3200.INC
      At line 374 in file ..\SRC\SYSTEM\LPC3200.INC
      At line 375 in file ..\SRC\SYSTEM\LPC3200.INC
      At line 376 in file ..\SRC\SYSTEM\LPC3200.INC
      At line 377 in file ..\SRC\SYSTEM\LPC3200.INC
      At line 378 in file ..\SRC\SYSTEM\LPC3200.INC
      At line 379 in file ..\SRC\SYSTEM\LPC3200.INC
      At line 380 in file ..\SRC\SYSTEM\LPC3200.INC
      At line 381 in file ..\SRC\SYSTEM\LPC3200.INC
      At line 382 in file ..\SRC\SYSTEM\LPC3200.INC
      At line 383 in file ..\SRC\SYSTEM\LPC3200.INC
      At line 384 in file ..\SRC\SYSTEM\LPC3200.INC
      At line 386 in file ..\SRC\SYSTEM\LPC3200.INC
      At line 387 in file ..\SRC\SYSTEM\LPC3200.INC
      At line 388 in file ..\SRC\SYSTEM\LPC3200.INC
      At line 390 in file ..\SRC\SYSTEM\LPC3200.INC
      At line 391 in file ..\SRC\SYSTEM\LPC3200.INC
      At line 393 in file ..\SRC\SYSTEM\LPC3200.INC
      At line 394 in file ..\SRC\SYSTEM\LPC3200.INC
      At line 395 in file ..\SRC\SYSTEM\LPC3200.INC
      At line 397 in file ..\SRC\SYSTEM\LPC3200.INC
      At line 398 in file ..\SRC\SYSTEM\LPC3200.INC
      At line 400 in file ..\SRC\SYSTEM\LPC3200.INC
      At line 401 in file ..\SRC\SYSTEM\LPC3200.INC
      At line 402 in file ..\SRC\SYSTEM\LPC3200.INC
      At line 403 in file ..\SRC\SYSTEM\LPC3200.INC
      At line 405 in file ..\SRC\SYSTEM\LPC3200.INC
      At line 406 in file ..\SRC\SYSTEM\LPC3200.INC

MAC_CLRT 31060010




ARM Macro Assembler    Page 50 Alphabetic symbol ordering
Absolute symbols

Symbol: MAC_CLRT
   Definitions
      At line 358 in file ..\SRC\SYSTEM\LPC3200.INC
   Uses
      None
Comment: MAC_CLRT unused
MAC_COMMAND 31060100

Symbol: MAC_COMMAND
   Definitions
      At line 373 in file ..\SRC\SYSTEM\LPC3200.INC
   Uses
      None
Comment: MAC_COMMAND unused
MAC_FLOWCONTROLCNT 31060170

Symbol: MAC_FLOWCONTROLCNT
   Definitions
      At line 390 in file ..\SRC\SYSTEM\LPC3200.INC
   Uses
      None
Comment: MAC_FLOWCONTROLCNT unused
MAC_FLOWCONTROLSTS 31060174

Symbol: MAC_FLOWCONTROLSTS
   Definitions
      At line 391 in file ..\SRC\SYSTEM\LPC3200.INC
   Uses
      None
Comment: MAC_FLOWCONTROLSTS unused
MAC_HASHFILTERH 31060214

Symbol: MAC_HASHFILTERH
   Definitions
      At line 398 in file ..\SRC\SYSTEM\LPC3200.INC
   Uses
      None
Comment: MAC_HASHFILTERH unused
MAC_HASHFILTERL 31060210

Symbol: MAC_HASHFILTERL
   Definitions
      At line 397 in file ..\SRC\SYSTEM\LPC3200.INC
   Uses
      None
Comment: MAC_HASHFILTERL unused
MAC_INTCLEAR 31060FE8

Symbol: MAC_INTCLEAR
   Definitions
      At line 402 in file ..\SRC\SYSTEM\LPC3200.INC
   Uses
      None
Comment: MAC_INTCLEAR unused
MAC_INTENABLE 31060FE4

Symbol: MAC_INTENABLE
   Definitions
      At line 401 in file ..\SRC\SYSTEM\LPC3200.INC



ARM Macro Assembler    Page 51 Alphabetic symbol ordering
Absolute symbols

   Uses
      None
Comment: MAC_INTENABLE unused
MAC_INTSET 31060FEC

Symbol: MAC_INTSET
   Definitions
      At line 403 in file ..\SRC\SYSTEM\LPC3200.INC
   Uses
      None
Comment: MAC_INTSET unused
MAC_INTSTATUS 31060FE0

Symbol: MAC_INTSTATUS
   Definitions
      At line 400 in file ..\SRC\SYSTEM\LPC3200.INC
   Uses
      None
Comment: MAC_INTSTATUS unused
MAC_IPGR 3106000C

Symbol: MAC_IPGR
   Definitions
      At line 357 in file ..\SRC\SYSTEM\LPC3200.INC
   Uses
      None
Comment: MAC_IPGR unused
MAC_IPGT 31060008

Symbol: MAC_IPGT
   Definitions
      At line 356 in file ..\SRC\SYSTEM\LPC3200.INC
   Uses
      None
Comment: MAC_IPGT unused
MAC_MAC1 31060000

Symbol: MAC_MAC1
   Definitions
      At line 354 in file ..\SRC\SYSTEM\LPC3200.INC
   Uses
      None
Comment: MAC_MAC1 unused
MAC_MAC2 31060004

Symbol: MAC_MAC2
   Definitions
      At line 355 in file ..\SRC\SYSTEM\LPC3200.INC
   Uses
      None
Comment: MAC_MAC2 unused
MAC_MADR 31060028

Symbol: MAC_MADR
   Definitions
      At line 364 in file ..\SRC\SYSTEM\LPC3200.INC
   Uses
      None
Comment: MAC_MADR unused



ARM Macro Assembler    Page 52 Alphabetic symbol ordering
Absolute symbols

MAC_MAXF 31060014

Symbol: MAC_MAXF
   Definitions
      At line 359 in file ..\SRC\SYSTEM\LPC3200.INC
   Uses
      None
Comment: MAC_MAXF unused
MAC_MCFG 31060020

Symbol: MAC_MCFG
   Definitions
      At line 362 in file ..\SRC\SYSTEM\LPC3200.INC
   Uses
      None
Comment: MAC_MCFG unused
MAC_MCMD 31060024

Symbol: MAC_MCMD
   Definitions
      At line 363 in file ..\SRC\SYSTEM\LPC3200.INC
   Uses
      None
Comment: MAC_MCMD unused
MAC_MIND 31060034

Symbol: MAC_MIND
   Definitions
      At line 367 in file ..\SRC\SYSTEM\LPC3200.INC
   Uses
      None
Comment: MAC_MIND unused
MAC_MODULEID 31060FFC

Symbol: MAC_MODULEID
   Definitions
      At line 406 in file ..\SRC\SYSTEM\LPC3200.INC
   Uses
      None
Comment: MAC_MODULEID unused
MAC_MRDD 31060030

Symbol: MAC_MRDD
   Definitions
      At line 366 in file ..\SRC\SYSTEM\LPC3200.INC
   Uses
      None
Comment: MAC_MRDD unused
MAC_MWTD 3106002C

Symbol: MAC_MWTD
   Definitions
      At line 365 in file ..\SRC\SYSTEM\LPC3200.INC
   Uses
      None
Comment: MAC_MWTD unused
MAC_POWERDOWN 31060FF4

Symbol: MAC_POWERDOWN



ARM Macro Assembler    Page 53 Alphabetic symbol ordering
Absolute symbols

   Definitions
      At line 405 in file ..\SRC\SYSTEM\LPC3200.INC
   Uses
      None
Comment: MAC_POWERDOWN unused
MAC_RSV 31060160

Symbol: MAC_RSV
   Definitions
      At line 388 in file ..\SRC\SYSTEM\LPC3200.INC
   Uses
      None
Comment: MAC_RSV unused
MAC_RXCONSUMEINDEX 31060118

Symbol: MAC_RXCONSUMEINDEX
   Definitions
      At line 379 in file ..\SRC\SYSTEM\LPC3200.INC
   Uses
      None
Comment: MAC_RXCONSUMEINDEX unused
MAC_RXDESCRIPTOR 31060108

Symbol: MAC_RXDESCRIPTOR
   Definitions
      At line 375 in file ..\SRC\SYSTEM\LPC3200.INC
   Uses
      None
Comment: MAC_RXDESCRIPTOR unused
MAC_RXDESCRIPTORNUM 31060110

Symbol: MAC_RXDESCRIPTORNUM
   Definitions
      At line 377 in file ..\SRC\SYSTEM\LPC3200.INC
   Uses
      None
Comment: MAC_RXDESCRIPTORNUM unused
MAC_RXFILTERCTRL 31060200

Symbol: MAC_RXFILTERCTRL
   Definitions
      At line 393 in file ..\SRC\SYSTEM\LPC3200.INC
   Uses
      None
Comment: MAC_RXFILTERCTRL unused
MAC_RXFILTERWOLCLR 31060208

Symbol: MAC_RXFILTERWOLCLR
   Definitions
      At line 395 in file ..\SRC\SYSTEM\LPC3200.INC
   Uses
      None
Comment: MAC_RXFILTERWOLCLR unused
MAC_RXFILTERWOLSTS 31060204

Symbol: MAC_RXFILTERWOLSTS
   Definitions
      At line 394 in file ..\SRC\SYSTEM\LPC3200.INC
   Uses



ARM Macro Assembler    Page 54 Alphabetic symbol ordering
Absolute symbols

      None
Comment: MAC_RXFILTERWOLSTS unused
MAC_RXPRODUCEINDEX 31060114

Symbol: MAC_RXPRODUCEINDEX
   Definitions
      At line 378 in file ..\SRC\SYSTEM\LPC3200.INC
   Uses
      None
Comment: MAC_RXPRODUCEINDEX unused
MAC_RXSTATUS 3106010C

Symbol: MAC_RXSTATUS
   Definitions
      At line 376 in file ..\SRC\SYSTEM\LPC3200.INC
   Uses
      None
Comment: MAC_RXSTATUS unused
MAC_SA0 31060040

Symbol: MAC_SA0
   Definitions
      At line 369 in file ..\SRC\SYSTEM\LPC3200.INC
   Uses
      None
Comment: MAC_SA0 unused
MAC_SA1 31060044

Symbol: MAC_SA1
   Definitions
      At line 370 in file ..\SRC\SYSTEM\LPC3200.INC
   Uses
      None
Comment: MAC_SA1 unused
MAC_SA2 31060048

Symbol: MAC_SA2
   Definitions
      At line 371 in file ..\SRC\SYSTEM\LPC3200.INC
   Uses
      None
Comment: MAC_SA2 unused
MAC_STATUS 31060104

Symbol: MAC_STATUS
   Definitions
      At line 374 in file ..\SRC\SYSTEM\LPC3200.INC
   Uses
      None
Comment: MAC_STATUS unused
MAC_SUPP 31060018

Symbol: MAC_SUPP
   Definitions
      At line 360 in file ..\SRC\SYSTEM\LPC3200.INC
   Uses
      None
Comment: MAC_SUPP unused
MAC_TEST 3106001C



ARM Macro Assembler    Page 55 Alphabetic symbol ordering
Absolute symbols


Symbol: MAC_TEST
   Definitions
      At line 361 in file ..\SRC\SYSTEM\LPC3200.INC
   Uses
      None
Comment: MAC_TEST unused
MAC_TSV0 31060158

Symbol: MAC_TSV0
   Definitions
      At line 386 in file ..\SRC\SYSTEM\LPC3200.INC
   Uses
      None
Comment: MAC_TSV0 unused
MAC_TSV1 3106015C

Symbol: MAC_TSV1
   Definitions
      At line 387 in file ..\SRC\SYSTEM\LPC3200.INC
   Uses
      None
Comment: MAC_TSV1 unused
MAC_TXCONSUMEINDEX 3106012C

Symbol: MAC_TXCONSUMEINDEX
   Definitions
      At line 384 in file ..\SRC\SYSTEM\LPC3200.INC
   Uses
      None
Comment: MAC_TXCONSUMEINDEX unused
MAC_TXDESCRIPTOR 3106011C

Symbol: MAC_TXDESCRIPTOR
   Definitions
      At line 380 in file ..\SRC\SYSTEM\LPC3200.INC
   Uses
      None
Comment: MAC_TXDESCRIPTOR unused
MAC_TXDESCRIPTORNUM 31060124

Symbol: MAC_TXDESCRIPTORNUM
   Definitions
      At line 382 in file ..\SRC\SYSTEM\LPC3200.INC
   Uses
      None
Comment: MAC_TXDESCRIPTORNUM unused
MAC_TXPRODUCEINDEX 31060128

Symbol: MAC_TXPRODUCEINDEX
   Definitions
      At line 383 in file ..\SRC\SYSTEM\LPC3200.INC
   Uses
      None
Comment: MAC_TXPRODUCEINDEX unused
MAC_TXSTATUS 31060120

Symbol: MAC_TXSTATUS
   Definitions



ARM Macro Assembler    Page 56 Alphabetic symbol ordering
Absolute symbols

      At line 381 in file ..\SRC\SYSTEM\LPC3200.INC
   Uses
      None
Comment: MAC_TXSTATUS unused
MAXPACKET_SIZE 3102024C

Symbol: MAXPACKET_SIZE
   Definitions
      At line 422 in file ..\SRC\SYSTEM\LPC3200.INC
   Uses
      None
Comment: MAXPACKET_SIZE unused
MCCAP0 400E8044

Symbol: MCCAP0
   Definitions
      At line 839 in file ..\SRC\SYSTEM\LPC3200.INC
   Uses
      None
Comment: MCCAP0 unused
MCCAP1 400E8048

Symbol: MCCAP1
   Definitions
      At line 840 in file ..\SRC\SYSTEM\LPC3200.INC
   Uses
      None
Comment: MCCAP1 unused
MCCAP2 400E804C

Symbol: MCCAP2
   Definitions
      At line 841 in file ..\SRC\SYSTEM\LPC3200.INC
   Uses
      None
Comment: MCCAP2 unused
MCCAPCON 400E800C

Symbol: MCCAPCON
   Definitions
      At line 825 in file ..\SRC\SYSTEM\LPC3200.INC
   Uses
      None
Comment: MCCAPCON unused
MCCAPCON_CLR 400E8014

Symbol: MCCAPCON_CLR
   Definitions
      At line 827 in file ..\SRC\SYSTEM\LPC3200.INC
   Uses
      None
Comment: MCCAPCON_CLR unused
MCCAPCON_SET 400E8010

Symbol: MCCAPCON_SET
   Definitions
      At line 826 in file ..\SRC\SYSTEM\LPC3200.INC
   Uses
      None



ARM Macro Assembler    Page 57 Alphabetic symbol ordering
Absolute symbols

Comment: MCCAPCON_SET unused
MCCAP_CLR 400E8074

Symbol: MCCAP_CLR
   Definitions
      At line 848 in file ..\SRC\SYSTEM\LPC3200.INC
   Uses
      None
Comment: MCCAP_CLR unused
MCCON 400E8000

Symbol: MCCON
   Definitions
      At line 822 in file ..\SRC\SYSTEM\LPC3200.INC
   Uses
      None
Comment: MCCON unused
MCCON_CLR 400E8008

Symbol: MCCON_CLR
   Definitions
      At line 824 in file ..\SRC\SYSTEM\LPC3200.INC
   Uses
      None
Comment: MCCON_CLR unused
MCCON_SET 400E8004

Symbol: MCCON_SET
   Definitions
      At line 823 in file ..\SRC\SYSTEM\LPC3200.INC
   Uses
      None
Comment: MCCON_SET unused
MCCP 400E8040

Symbol: MCCP
   Definitions
      At line 838 in file ..\SRC\SYSTEM\LPC3200.INC
   Uses
      None
Comment: MCCP unused
MCDT 400E803C

Symbol: MCDT
   Definitions
      At line 837 in file ..\SRC\SYSTEM\LPC3200.INC
   Uses
      None
Comment: MCDT unused
MCINTEN 400E8050

Symbol: MCINTEN
   Definitions
      At line 842 in file ..\SRC\SYSTEM\LPC3200.INC
   Uses
      None
Comment: MCINTEN unused
MCINTEN_CLR 400E8058




ARM Macro Assembler    Page 58 Alphabetic symbol ordering
Absolute symbols

Symbol: MCINTEN_CLR
   Definitions
      At line 844 in file ..\SRC\SYSTEM\LPC3200.INC
   Uses
      None
Comment: MCINTEN_CLR unused
MCINTEN_SET 400E8054

Symbol: MCINTEN_SET
   Definitions
      At line 843 in file ..\SRC\SYSTEM\LPC3200.INC
   Uses
      None
Comment: MCINTEN_SET unused
MCINTFLAG 400E8068

Symbol: MCINTFLAG
   Definitions
      At line 845 in file ..\SRC\SYSTEM\LPC3200.INC
   Uses
      None
Comment: MCINTFLAG unused
MCINTFLAG_CLR 400E8070

Symbol: MCINTFLAG_CLR
   Definitions
      At line 847 in file ..\SRC\SYSTEM\LPC3200.INC
   Uses
      None
Comment: MCINTFLAG_CLR unused
MCINTFLAG_SET 400E806C

Symbol: MCINTFLAG_SET
   Definitions
      At line 846 in file ..\SRC\SYSTEM\LPC3200.INC
   Uses
      None
Comment: MCINTFLAG_SET unused
MCLIM0 400E8024

Symbol: MCLIM0
   Definitions
      At line 831 in file ..\SRC\SYSTEM\LPC3200.INC
   Uses
      None
Comment: MCLIM0 unused
MCLIM1 400E8028

Symbol: MCLIM1
   Definitions
      At line 832 in file ..\SRC\SYSTEM\LPC3200.INC
   Uses
      None
Comment: MCLIM1 unused
MCLIM2 400E802C

Symbol: MCLIM2
   Definitions
      At line 833 in file ..\SRC\SYSTEM\LPC3200.INC



ARM Macro Assembler    Page 59 Alphabetic symbol ordering
Absolute symbols

   Uses
      None
Comment: MCLIM2 unused
MCMAT0 400E8030

Symbol: MCMAT0
   Definitions
      At line 834 in file ..\SRC\SYSTEM\LPC3200.INC
   Uses
      None
Comment: MCMAT0 unused
MCMAT1 400E8034

Symbol: MCMAT1
   Definitions
      At line 835 in file ..\SRC\SYSTEM\LPC3200.INC
   Uses
      None
Comment: MCMAT1 unused
MCMAT2 400E8038

Symbol: MCMAT2
   Definitions
      At line 836 in file ..\SRC\SYSTEM\LPC3200.INC
   Uses
      None
Comment: MCMAT2 unused
MCTC0 400E8018

Symbol: MCTC0
   Definitions
      At line 828 in file ..\SRC\SYSTEM\LPC3200.INC
   Uses
      None
Comment: MCTC0 unused
MCTC1 400E801C

Symbol: MCTC1
   Definitions
      At line 829 in file ..\SRC\SYSTEM\LPC3200.INC
   Uses
      None
Comment: MCTC1 unused
MCTC2 400E8020

Symbol: MCTC2
   Definitions
      At line 830 in file ..\SRC\SYSTEM\LPC3200.INC
   Uses
      None
Comment: MCTC2 unused
MIC_APR 4000800C

Symbol: MIC_APR
   Definitions
      At line 71 in file ..\SRC\SYSTEM\LPC3200.INC
   Uses
      At line 76 in file ..\SRC\SYSTEM\vicControl.s
      At line 455 in file ..\SRC\SYSTEM\vicControl.s



ARM Macro Assembler    Page 60 Alphabetic symbol ordering
Absolute symbols

      At line 461 in file ..\SRC\SYSTEM\vicControl.s
      At line 624 in file ..\SRC\SYSTEM\vicControl.s
      At line 630 in file ..\SRC\SYSTEM\vicControl.s

MIC_ATR 40008010

Symbol: MIC_ATR
   Definitions
      At line 72 in file ..\SRC\SYSTEM\LPC3200.INC
   Uses
      At line 78 in file ..\SRC\SYSTEM\vicControl.s
      At line 464 in file ..\SRC\SYSTEM\vicControl.s
      At line 470 in file ..\SRC\SYSTEM\vicControl.s
      At line 633 in file ..\SRC\SYSTEM\vicControl.s
      At line 639 in file ..\SRC\SYSTEM\vicControl.s
      At line 1067 in file ..\SRC\SYSTEM\vicControl.s

MIC_BASE_ADDR 40008000

Symbol: MIC_BASE_ADDR
   Definitions
      At line 67 in file ..\SRC\SYSTEM\LPC3200.INC
   Uses
      At line 68 in file ..\SRC\SYSTEM\LPC3200.INC
      At line 69 in file ..\SRC\SYSTEM\LPC3200.INC
      At line 70 in file ..\SRC\SYSTEM\LPC3200.INC
      At line 71 in file ..\SRC\SYSTEM\LPC3200.INC
      At line 72 in file ..\SRC\SYSTEM\LPC3200.INC
      At line 73 in file ..\SRC\SYSTEM\LPC3200.INC

MIC_ER 40008000

Symbol: MIC_ER
   Definitions
      At line 68 in file ..\SRC\SYSTEM\LPC3200.INC
   Uses
      At line 69 in file ..\SRC\SYSTEM\vicControl.s
      At line 473 in file ..\SRC\SYSTEM\vicControl.s
      At line 514 in file ..\SRC\SYSTEM\vicControl.s
      At line 550 in file ..\SRC\SYSTEM\vicControl.s
      At line 585 in file ..\SRC\SYSTEM\vicControl.s
      At line 648 in file ..\SRC\SYSTEM\vicControl.s
      At line 683 in file ..\SRC\SYSTEM\vicControl.s

MIC_ITR 40008014

Symbol: MIC_ITR
   Definitions
      At line 73 in file ..\SRC\SYSTEM\LPC3200.INC
   Uses
      At line 438 in file ..\SRC\SYSTEM\vicControl.s
      At line 500 in file ..\SRC\SYSTEM\vicControl.s
      At line 642 in file ..\SRC\SYSTEM\vicControl.s
      At line 676 in file ..\SRC\SYSTEM\vicControl.s
      At line 688 in file ..\SRC\SYSTEM\vicControl.s

MIC_RSR 40008004

Symbol: MIC_RSR



ARM Macro Assembler    Page 61 Alphabetic symbol ordering
Absolute symbols

   Definitions
      At line 69 in file ..\SRC\SYSTEM\LPC3200.INC
   Uses
      At line 319 in file ..\SRC\SYSTEM\vicControl.s
Comment: MIC_RSR used once
MIC_SR 40008008

Symbol: MIC_SR
   Definitions
      At line 70 in file ..\SRC\SYSTEM\LPC3200.INC
   Uses
      At line 298 in file ..\SRC\SYSTEM\vicControl.s
      At line 313 in file ..\SRC\SYSTEM\vicControl.s

MLC_ADDR 200B8004

Symbol: MLC_ADDR
   Definitions
      At line 249 in file ..\SRC\SYSTEM\LPC3200.INC
   Uses
      None
Comment: MLC_ADDR unused
MLC_BASE_ADDR 200B8000

Symbol: MLC_BASE_ADDR
   Definitions
      At line 247 in file ..\SRC\SYSTEM\LPC3200.INC
   Uses
      At line 248 in file ..\SRC\SYSTEM\LPC3200.INC
      At line 249 in file ..\SRC\SYSTEM\LPC3200.INC
      At line 250 in file ..\SRC\SYSTEM\LPC3200.INC
      At line 251 in file ..\SRC\SYSTEM\LPC3200.INC
      At line 252 in file ..\SRC\SYSTEM\LPC3200.INC
      At line 253 in file ..\SRC\SYSTEM\LPC3200.INC
      At line 254 in file ..\SRC\SYSTEM\LPC3200.INC
      At line 255 in file ..\SRC\SYSTEM\LPC3200.INC
      At line 256 in file ..\SRC\SYSTEM\LPC3200.INC
      At line 257 in file ..\SRC\SYSTEM\LPC3200.INC
      At line 258 in file ..\SRC\SYSTEM\LPC3200.INC
      At line 259 in file ..\SRC\SYSTEM\LPC3200.INC
      At line 260 in file ..\SRC\SYSTEM\LPC3200.INC
      At line 261 in file ..\SRC\SYSTEM\LPC3200.INC
      At line 262 in file ..\SRC\SYSTEM\LPC3200.INC
      At line 263 in file ..\SRC\SYSTEM\LPC3200.INC
      At line 264 in file ..\SRC\SYSTEM\LPC3200.INC
      At line 265 in file ..\SRC\SYSTEM\LPC3200.INC
      At line 266 in file ..\SRC\SYSTEM\LPC3200.INC

MLC_BUFF 200A8000

Symbol: MLC_BUFF
   Definitions
      At line 268 in file ..\SRC\SYSTEM\LPC3200.INC
   Uses
      None
Comment: MLC_BUFF unused
MLC_CEH 200B804C

Symbol: MLC_CEH



ARM Macro Assembler    Page 62 Alphabetic symbol ordering
Absolute symbols

   Definitions
      At line 266 in file ..\SRC\SYSTEM\LPC3200.INC
   Uses
      None
Comment: MLC_CEH unused
MLC_CMD 200B8000

Symbol: MLC_CMD
   Definitions
      At line 248 in file ..\SRC\SYSTEM\LPC3200.INC
   Uses
      None
Comment: MLC_CMD unused
MLC_DATA 200B0000

Symbol: MLC_DATA
   Definitions
      At line 269 in file ..\SRC\SYSTEM\LPC3200.INC
   Uses
      None
Comment: MLC_DATA unused
MLC_ECC_AUTO_DEC_REG 200B8014

Symbol: MLC_ECC_AUTO_DEC_REG
   Definitions
      At line 253 in file ..\SRC\SYSTEM\LPC3200.INC
   Uses
      None
Comment: MLC_ECC_AUTO_DEC_REG unused
MLC_ECC_AUTO_ENC_REG 200B8010

Symbol: MLC_ECC_AUTO_ENC_REG
   Definitions
      At line 252 in file ..\SRC\SYSTEM\LPC3200.INC
   Uses
      None
Comment: MLC_ECC_AUTO_ENC_REG unused
MLC_ECC_DEC_REG 200B800C

Symbol: MLC_ECC_DEC_REG
   Definitions
      At line 251 in file ..\SRC\SYSTEM\LPC3200.INC
   Uses
      None
Comment: MLC_ECC_DEC_REG unused
MLC_ECC_ENC_REG 200B8008

Symbol: MLC_ECC_ENC_REG
   Definitions
      At line 250 in file ..\SRC\SYSTEM\LPC3200.INC
   Uses
      None
Comment: MLC_ECC_ENC_REG unused
MLC_ICR 200B8030

Symbol: MLC_ICR
   Definitions
      At line 260 in file ..\SRC\SYSTEM\LPC3200.INC
   Uses



ARM Macro Assembler    Page 63 Alphabetic symbol ordering
Absolute symbols

      None
Comment: MLC_ICR unused
MLC_IRQ_MR 200B8038

Symbol: MLC_IRQ_MR
   Definitions
      At line 262 in file ..\SRC\SYSTEM\LPC3200.INC
   Uses
      None
Comment: MLC_IRQ_MR unused
MLC_IRQ_SR 200B803C

Symbol: MLC_IRQ_SR
   Definitions
      At line 263 in file ..\SRC\SYSTEM\LPC3200.INC
   Uses
      None
Comment: MLC_IRQ_SR unused
MLC_ISR 200B8048

Symbol: MLC_ISR
   Definitions
      At line 265 in file ..\SRC\SYSTEM\LPC3200.INC
   Uses
      None
Comment: MLC_ISR unused
MLC_LOCK_PR 200B8044

Symbol: MLC_LOCK_PR
   Definitions
      At line 264 in file ..\SRC\SYSTEM\LPC3200.INC
   Uses
      None
Comment: MLC_LOCK_PR unused
MLC_ROBP 200B8024

Symbol: MLC_ROBP
   Definitions
      At line 257 in file ..\SRC\SYSTEM\LPC3200.INC
   Uses
      None
Comment: MLC_ROBP unused
MLC_RPR 200B8018

Symbol: MLC_RPR
   Definitions
      At line 254 in file ..\SRC\SYSTEM\LPC3200.INC
   Uses
      None
Comment: MLC_RPR unused
MLC_RUBP 200B8020

Symbol: MLC_RUBP
   Definitions
      At line 256 in file ..\SRC\SYSTEM\LPC3200.INC
   Uses
      None
Comment: MLC_RUBP unused
MLC_SW_WP_ADD_HIG 200B802C



ARM Macro Assembler    Page 64 Alphabetic symbol ordering
Absolute symbols


Symbol: MLC_SW_WP_ADD_HIG
   Definitions
      At line 259 in file ..\SRC\SYSTEM\LPC3200.INC
   Uses
      None
Comment: MLC_SW_WP_ADD_HIG unused
MLC_SW_WP_ADD_LOW 200B8028

Symbol: MLC_SW_WP_ADD_LOW
   Definitions
      At line 258 in file ..\SRC\SYSTEM\LPC3200.INC
   Uses
      None
Comment: MLC_SW_WP_ADD_LOW unused
MLC_TIME_REG 200B8034

Symbol: MLC_TIME_REG
   Definitions
      At line 261 in file ..\SRC\SYSTEM\LPC3200.INC
   Uses
      None
Comment: MLC_TIME_REG unused
MLC_WPR 200B801C

Symbol: MLC_WPR
   Definitions
      At line 255 in file ..\SRC\SYSTEM\LPC3200.INC
   Uses
      None
Comment: MLC_WPR unused
MODULE_ID 310202FC

Symbol: MODULE_ID
   Definitions
      At line 450 in file ..\SRC\SYSTEM\LPC3200.INC
   Uses
      None
Comment: MODULE_ID unused
MOTOR_BASE_ADDR 400E8000

Symbol: MOTOR_BASE_ADDR
   Definitions
      At line 821 in file ..\SRC\SYSTEM\LPC3200.INC
   Uses
      At line 822 in file ..\SRC\SYSTEM\LPC3200.INC
      At line 823 in file ..\SRC\SYSTEM\LPC3200.INC
      At line 824 in file ..\SRC\SYSTEM\LPC3200.INC
      At line 825 in file ..\SRC\SYSTEM\LPC3200.INC
      At line 826 in file ..\SRC\SYSTEM\LPC3200.INC
      At line 827 in file ..\SRC\SYSTEM\LPC3200.INC
      At line 828 in file ..\SRC\SYSTEM\LPC3200.INC
      At line 829 in file ..\SRC\SYSTEM\LPC3200.INC
      At line 830 in file ..\SRC\SYSTEM\LPC3200.INC
      At line 831 in file ..\SRC\SYSTEM\LPC3200.INC
      At line 832 in file ..\SRC\SYSTEM\LPC3200.INC
      At line 833 in file ..\SRC\SYSTEM\LPC3200.INC
      At line 834 in file ..\SRC\SYSTEM\LPC3200.INC
      At line 835 in file ..\SRC\SYSTEM\LPC3200.INC



ARM Macro Assembler    Page 65 Alphabetic symbol ordering
Absolute symbols

      At line 836 in file ..\SRC\SYSTEM\LPC3200.INC
      At line 837 in file ..\SRC\SYSTEM\LPC3200.INC
      At line 838 in file ..\SRC\SYSTEM\LPC3200.INC
      At line 839 in file ..\SRC\SYSTEM\LPC3200.INC
      At line 840 in file ..\SRC\SYSTEM\LPC3200.INC
      At line 841 in file ..\SRC\SYSTEM\LPC3200.INC
      At line 842 in file ..\SRC\SYSTEM\LPC3200.INC
      At line 843 in file ..\SRC\SYSTEM\LPC3200.INC
      At line 844 in file ..\SRC\SYSTEM\LPC3200.INC
      At line 845 in file ..\SRC\SYSTEM\LPC3200.INC
      At line 846 in file ..\SRC\SYSTEM\LPC3200.INC
      At line 847 in file ..\SRC\SYSTEM\LPC3200.INC
      At line 848 in file ..\SRC\SYSTEM\LPC3200.INC

MSTIM_BASE_ADDR 40034000

Symbol: MSTIM_BASE_ADDR
   Definitions
      At line 793 in file ..\SRC\SYSTEM\LPC3200.INC
   Uses
      At line 794 in file ..\SRC\SYSTEM\LPC3200.INC
      At line 795 in file ..\SRC\SYSTEM\LPC3200.INC
      At line 796 in file ..\SRC\SYSTEM\LPC3200.INC
      At line 797 in file ..\SRC\SYSTEM\LPC3200.INC
      At line 798 in file ..\SRC\SYSTEM\LPC3200.INC
      At line 799 in file ..\SRC\SYSTEM\LPC3200.INC

MSTIM_COUNTER 40034008

Symbol: MSTIM_COUNTER
   Definitions
      At line 796 in file ..\SRC\SYSTEM\LPC3200.INC
   Uses
      None
Comment: MSTIM_COUNTER unused
MSTIM_CTRL 40034004

Symbol: MSTIM_CTRL
   Definitions
      At line 795 in file ..\SRC\SYSTEM\LPC3200.INC
   Uses
      None
Comment: MSTIM_CTRL unused
MSTIM_INT 40034000

Symbol: MSTIM_INT
   Definitions
      At line 794 in file ..\SRC\SYSTEM\LPC3200.INC
   Uses
      None
Comment: MSTIM_INT unused
MSTIM_MATCH0 40034018

Symbol: MSTIM_MATCH0
   Definitions
      At line 798 in file ..\SRC\SYSTEM\LPC3200.INC
   Uses
      None
Comment: MSTIM_MATCH0 unused



ARM Macro Assembler    Page 66 Alphabetic symbol ordering
Absolute symbols

MSTIM_MATCH1 4003401C

Symbol: MSTIM_MATCH1
   Definitions
      At line 799 in file ..\SRC\SYSTEM\LPC3200.INC
   Uses
      None
Comment: MSTIM_MATCH1 unused
MSTIM_MCTRL 40034014

Symbol: MSTIM_MCTRL
   Definitions
      At line 797 in file ..\SRC\SYSTEM\LPC3200.INC
   Uses
      None
Comment: MSTIM_MCTRL unused
MS_CTRL 40004080

Symbol: MS_CTRL
   Definitions
      At line 50 in file ..\SRC\SYSTEM\LPC3200.INC
   Uses
      None
Comment: MS_CTRL unused
MUX_BASE_ADDR 40028000

Symbol: MUX_BASE_ADDR
   Definitions
      At line 854 in file ..\SRC\SYSTEM\LPC3200.INC
   Uses
      At line 855 in file ..\SRC\SYSTEM\LPC3200.INC
      At line 856 in file ..\SRC\SYSTEM\LPC3200.INC
      At line 857 in file ..\SRC\SYSTEM\LPC3200.INC
      At line 858 in file ..\SRC\SYSTEM\LPC3200.INC
      At line 859 in file ..\SRC\SYSTEM\LPC3200.INC
      At line 860 in file ..\SRC\SYSTEM\LPC3200.INC
      At line 861 in file ..\SRC\SYSTEM\LPC3200.INC
      At line 862 in file ..\SRC\SYSTEM\LPC3200.INC
      At line 863 in file ..\SRC\SYSTEM\LPC3200.INC
      At line 864 in file ..\SRC\SYSTEM\LPC3200.INC
      At line 865 in file ..\SRC\SYSTEM\LPC3200.INC
      At line 866 in file ..\SRC\SYSTEM\LPC3200.INC
      At line 867 in file ..\SRC\SYSTEM\LPC3200.INC
      At line 868 in file ..\SRC\SYSTEM\LPC3200.INC
      At line 869 in file ..\SRC\SYSTEM\LPC3200.INC

NDD_REQ_INT_CLR 310202B0

Symbol: NDD_REQ_INT_CLR
   Definitions
      At line 445 in file ..\SRC\SYSTEM\LPC3200.INC
   Uses
      None
Comment: NDD_REQ_INT_CLR unused
NDD_REQ_INT_SET 310202B4

Symbol: NDD_REQ_INT_SET
   Definitions
      At line 446 in file ..\SRC\SYSTEM\LPC3200.INC



ARM Macro Assembler    Page 67 Alphabetic symbol ordering
Absolute symbols

   Uses
      None
Comment: NDD_REQ_INT_SET unused
NDD_REQ_INT_STAT 310202AC

Symbol: NDD_REQ_INT_STAT
   Definitions
      At line 444 in file ..\SRC\SYSTEM\LPC3200.INC
   Uses
      None
Comment: NDD_REQ_INT_STAT unused
NoFIQ 00000040

Symbol: NoFIQ
   Definitions
      At line 30 in file ..\SRC\SYSTEM\vicControl.s
   Uses
      At line 433 in file ..\SRC\SYSTEM\vicControl.s
      At line 449 in file ..\SRC\SYSTEM\vicControl.s
      At line 513 in file ..\SRC\SYSTEM\vicControl.s
      At line 549 in file ..\SRC\SYSTEM\vicControl.s
      At line 583 in file ..\SRC\SYSTEM\vicControl.s
      At line 608 in file ..\SRC\SYSTEM\vicControl.s
      At line 670 in file ..\SRC\SYSTEM\vicControl.s
      At line 725 in file ..\SRC\SYSTEM\vicControl.s
      At line 743 in file ..\SRC\SYSTEM\vicControl.s
      At line 810 in file ..\SRC\SYSTEM\vicControl.s
      At line 852 in file ..\SRC\SYSTEM\vicControl.s
      At line 889 in file ..\SRC\SYSTEM\vicControl.s
      At line 914 in file ..\SRC\SYSTEM\vicControl.s
      At line 979 in file ..\SRC\SYSTEM\vicControl.s
      At line 1034 in file ..\SRC\SYSTEM\vicControl.s
      At line 1052 in file ..\SRC\SYSTEM\vicControl.s
      At line 1119 in file ..\SRC\SYSTEM\vicControl.s
      At line 1161 in file ..\SRC\SYSTEM\vicControl.s
      At line 1198 in file ..\SRC\SYSTEM\vicControl.s
      At line 1223 in file ..\SRC\SYSTEM\vicControl.s
      At line 1288 in file ..\SRC\SYSTEM\vicControl.s

NoInt 00000080

Symbol: NoInt
   Definitions
      At line 29 in file ..\SRC\SYSTEM\vicControl.s
   Uses
      At line 293 in file ..\SRC\SYSTEM\vicControl.s
      At line 348 in file ..\SRC\SYSTEM\vicControl.s
      At line 433 in file ..\SRC\SYSTEM\vicControl.s
      At line 449 in file ..\SRC\SYSTEM\vicControl.s
      At line 513 in file ..\SRC\SYSTEM\vicControl.s
      At line 549 in file ..\SRC\SYSTEM\vicControl.s
      At line 583 in file ..\SRC\SYSTEM\vicControl.s
      At line 608 in file ..\SRC\SYSTEM\vicControl.s
      At line 670 in file ..\SRC\SYSTEM\vicControl.s
      At line 725 in file ..\SRC\SYSTEM\vicControl.s
      At line 743 in file ..\SRC\SYSTEM\vicControl.s
      At line 810 in file ..\SRC\SYSTEM\vicControl.s
      At line 852 in file ..\SRC\SYSTEM\vicControl.s
      At line 889 in file ..\SRC\SYSTEM\vicControl.s



ARM Macro Assembler    Page 68 Alphabetic symbol ordering
Absolute symbols

      At line 914 in file ..\SRC\SYSTEM\vicControl.s
      At line 979 in file ..\SRC\SYSTEM\vicControl.s
      At line 1034 in file ..\SRC\SYSTEM\vicControl.s
      At line 1052 in file ..\SRC\SYSTEM\vicControl.s
      At line 1119 in file ..\SRC\SYSTEM\vicControl.s
      At line 1161 in file ..\SRC\SYSTEM\vicControl.s
      At line 1198 in file ..\SRC\SYSTEM\vicControl.s
      At line 1223 in file ..\SRC\SYSTEM\vicControl.s
      At line 1288 in file ..\SRC\SYSTEM\vicControl.s

OSC_CTRL 4000404C

Symbol: OSC_CTRL
   Definitions
      At line 30 in file ..\SRC\SYSTEM\LPC3200.INC
   Uses
      None
Comment: OSC_CTRL unused
OTG_CLOCK_CONTROL 31020FF4

Symbol: OTG_CLOCK_CONTROL
   Definitions
      At line 485 in file ..\SRC\SYSTEM\LPC3200.INC
   Uses
      None
Comment: OTG_CLOCK_CONTROL unused
OTG_CLOCK_STATUS 31020FF8

Symbol: OTG_CLOCK_STATUS
   Definitions
      At line 486 in file ..\SRC\SYSTEM\LPC3200.INC
   Uses
      None
Comment: OTG_CLOCK_STATUS unused
OTG_I2C_BASE_ADDR 31020300

Symbol: OTG_I2C_BASE_ADDR
   Definitions
      At line 488 in file ..\SRC\SYSTEM\LPC3200.INC
   Uses
      At line 489 in file ..\SRC\SYSTEM\LPC3200.INC
      At line 490 in file ..\SRC\SYSTEM\LPC3200.INC
      At line 491 in file ..\SRC\SYSTEM\LPC3200.INC
      At line 492 in file ..\SRC\SYSTEM\LPC3200.INC
      At line 493 in file ..\SRC\SYSTEM\LPC3200.INC
      At line 494 in file ..\SRC\SYSTEM\LPC3200.INC

OTG_INT_CLEAR 3102010C

Symbol: OTG_INT_CLEAR
   Definitions
      At line 482 in file ..\SRC\SYSTEM\LPC3200.INC
   Uses
      None
Comment: OTG_INT_CLEAR unused
OTG_INT_ENABLE 31020104

Symbol: OTG_INT_ENABLE
   Definitions



ARM Macro Assembler    Page 69 Alphabetic symbol ordering
Absolute symbols

      At line 480 in file ..\SRC\SYSTEM\LPC3200.INC
   Uses
      None
Comment: OTG_INT_ENABLE unused
OTG_INT_SET 31020108

Symbol: OTG_INT_SET
   Definitions
      At line 481 in file ..\SRC\SYSTEM\LPC3200.INC
   Uses
      None
Comment: OTG_INT_SET unused
OTG_INT_STATUS 31020100

Symbol: OTG_INT_STATUS
   Definitions
      At line 479 in file ..\SRC\SYSTEM\LPC3200.INC
   Uses
      None
Comment: OTG_INT_STATUS unused
OTG_STATUS 31020110

Symbol: OTG_STATUS
   Definitions
      At line 483 in file ..\SRC\SYSTEM\LPC3200.INC
   Uses
      None
Comment: OTG_STATUS unused
OTG_TIMER 31020114

Symbol: OTG_TIMER
   Definitions
      At line 484 in file ..\SRC\SYSTEM\LPC3200.INC
   Uses
      None
Comment: OTG_TIMER unused
P0_BASE_ADDR 40028040

Symbol: P0_BASE_ADDR
   Definitions
      At line 871 in file ..\SRC\SYSTEM\LPC3200.INC
   Uses
      At line 872 in file ..\SRC\SYSTEM\LPC3200.INC
      At line 873 in file ..\SRC\SYSTEM\LPC3200.INC
      At line 874 in file ..\SRC\SYSTEM\LPC3200.INC
      At line 875 in file ..\SRC\SYSTEM\LPC3200.INC
      At line 876 in file ..\SRC\SYSTEM\LPC3200.INC
      At line 877 in file ..\SRC\SYSTEM\LPC3200.INC
      At line 878 in file ..\SRC\SYSTEM\LPC3200.INC

P0_DIR_CLR 40028054

Symbol: P0_DIR_CLR
   Definitions
      At line 877 in file ..\SRC\SYSTEM\LPC3200.INC
   Uses
      None
Comment: P0_DIR_CLR unused
P0_DIR_SET 40028050



ARM Macro Assembler    Page 70 Alphabetic symbol ordering
Absolute symbols


Symbol: P0_DIR_SET
   Definitions
      At line 876 in file ..\SRC\SYSTEM\LPC3200.INC
   Uses
      None
Comment: P0_DIR_SET unused
P0_DIR_STATE 40028058

Symbol: P0_DIR_STATE
   Definitions
      At line 878 in file ..\SRC\SYSTEM\LPC3200.INC
   Uses
      None
Comment: P0_DIR_STATE unused
P0_INP_STATE 40028040

Symbol: P0_INP_STATE
   Definitions
      At line 872 in file ..\SRC\SYSTEM\LPC3200.INC
   Uses
      None
Comment: P0_INP_STATE unused
P0_MUX_CLR 40028124

Symbol: P0_MUX_CLR
   Definitions
      At line 859 in file ..\SRC\SYSTEM\LPC3200.INC
   Uses
      None
Comment: P0_MUX_CLR unused
P0_MUX_SET 40028120

Symbol: P0_MUX_SET
   Definitions
      At line 858 in file ..\SRC\SYSTEM\LPC3200.INC
   Uses
      None
Comment: P0_MUX_SET unused
P0_MUX_STATE 40028128

Symbol: P0_MUX_STATE
   Definitions
      At line 860 in file ..\SRC\SYSTEM\LPC3200.INC
   Uses
      None
Comment: P0_MUX_STATE unused
P0_OUTP_CLR 40028048

Symbol: P0_OUTP_CLR
   Definitions
      At line 874 in file ..\SRC\SYSTEM\LPC3200.INC
   Uses
      None
Comment: P0_OUTP_CLR unused
P0_OUTP_SET 40028044

Symbol: P0_OUTP_SET
   Definitions



ARM Macro Assembler    Page 71 Alphabetic symbol ordering
Absolute symbols

      At line 873 in file ..\SRC\SYSTEM\LPC3200.INC
   Uses
      None
Comment: P0_OUTP_SET unused
P0_OUTP_STATE 4002804C

Symbol: P0_OUTP_STATE
   Definitions
      At line 875 in file ..\SRC\SYSTEM\LPC3200.INC
   Uses
      None
Comment: P0_OUTP_STATE unused
P1_BASE_ADDR 40028060

Symbol: P1_BASE_ADDR
   Definitions
      At line 880 in file ..\SRC\SYSTEM\LPC3200.INC
   Uses
      At line 881 in file ..\SRC\SYSTEM\LPC3200.INC
      At line 882 in file ..\SRC\SYSTEM\LPC3200.INC
      At line 883 in file ..\SRC\SYSTEM\LPC3200.INC
      At line 884 in file ..\SRC\SYSTEM\LPC3200.INC
      At line 885 in file ..\SRC\SYSTEM\LPC3200.INC
      At line 886 in file ..\SRC\SYSTEM\LPC3200.INC
      At line 887 in file ..\SRC\SYSTEM\LPC3200.INC

P1_DIR_CLR 40028074

Symbol: P1_DIR_CLR
   Definitions
      At line 886 in file ..\SRC\SYSTEM\LPC3200.INC
   Uses
      None
Comment: P1_DIR_CLR unused
P1_DIR_SET 40028070

Symbol: P1_DIR_SET
   Definitions
      At line 885 in file ..\SRC\SYSTEM\LPC3200.INC
   Uses
      None
Comment: P1_DIR_SET unused
P1_DIR_STATE 40028078

Symbol: P1_DIR_STATE
   Definitions
      At line 887 in file ..\SRC\SYSTEM\LPC3200.INC
   Uses
      None
Comment: P1_DIR_STATE unused
P1_INP_STATE 40028060

Symbol: P1_INP_STATE
   Definitions
      At line 881 in file ..\SRC\SYSTEM\LPC3200.INC
   Uses
      None
Comment: P1_INP_STATE unused
P1_MUX_CLR 40028134



ARM Macro Assembler    Page 72 Alphabetic symbol ordering
Absolute symbols


Symbol: P1_MUX_CLR
   Definitions
      At line 862 in file ..\SRC\SYSTEM\LPC3200.INC
   Uses
      None
Comment: P1_MUX_CLR unused
P1_MUX_SET 40028130

Symbol: P1_MUX_SET
   Definitions
      At line 861 in file ..\SRC\SYSTEM\LPC3200.INC
   Uses
      None
Comment: P1_MUX_SET unused
P1_MUX_STATE 40028138

Symbol: P1_MUX_STATE
   Definitions
      At line 863 in file ..\SRC\SYSTEM\LPC3200.INC
   Uses
      None
Comment: P1_MUX_STATE unused
P1_OUTP_CLR 40028068

Symbol: P1_OUTP_CLR
   Definitions
      At line 883 in file ..\SRC\SYSTEM\LPC3200.INC
   Uses
      None
Comment: P1_OUTP_CLR unused
P1_OUTP_SET 40028064

Symbol: P1_OUTP_SET
   Definitions
      At line 882 in file ..\SRC\SYSTEM\LPC3200.INC
   Uses
      None
Comment: P1_OUTP_SET unused
P1_OUTP_STATE 4002806C

Symbol: P1_OUTP_STATE
   Definitions
      At line 884 in file ..\SRC\SYSTEM\LPC3200.INC
   Uses
      None
Comment: P1_OUTP_STATE unused
P2_BASE_ADDR 40028010

Symbol: P2_BASE_ADDR
   Definitions
      At line 889 in file ..\SRC\SYSTEM\LPC3200.INC
   Uses
      At line 890 in file ..\SRC\SYSTEM\LPC3200.INC
      At line 891 in file ..\SRC\SYSTEM\LPC3200.INC
      At line 892 in file ..\SRC\SYSTEM\LPC3200.INC
      At line 893 in file ..\SRC\SYSTEM\LPC3200.INC
      At line 894 in file ..\SRC\SYSTEM\LPC3200.INC
      At line 895 in file ..\SRC\SYSTEM\LPC3200.INC



ARM Macro Assembler    Page 73 Alphabetic symbol ordering
Absolute symbols


P2_DIR_CLR 40028014

Symbol: P2_DIR_CLR
   Definitions
      At line 894 in file ..\SRC\SYSTEM\LPC3200.INC
   Uses
      None
Comment: P2_DIR_CLR unused
P2_DIR_SET 40028010

Symbol: P2_DIR_SET
   Definitions
      At line 893 in file ..\SRC\SYSTEM\LPC3200.INC
   Uses
      None
Comment: P2_DIR_SET unused
P2_DIR_STATE 40028018

Symbol: P2_DIR_STATE
   Definitions
      At line 895 in file ..\SRC\SYSTEM\LPC3200.INC
   Uses
      None
Comment: P2_DIR_STATE unused
P2_INP_STATE 4002801C

Symbol: P2_INP_STATE
   Definitions
      At line 890 in file ..\SRC\SYSTEM\LPC3200.INC
   Uses
      None
Comment: P2_INP_STATE unused
P2_MUX_CLR 4002802C

Symbol: P2_MUX_CLR
   Definitions
      At line 865 in file ..\SRC\SYSTEM\LPC3200.INC
   Uses
      None
Comment: P2_MUX_CLR unused
P2_MUX_SET 40028028

Symbol: P2_MUX_SET
   Definitions
      At line 864 in file ..\SRC\SYSTEM\LPC3200.INC
   Uses
      None
Comment: P2_MUX_SET unused
P2_MUX_STATE 40028030

Symbol: P2_MUX_STATE
   Definitions
      At line 866 in file ..\SRC\SYSTEM\LPC3200.INC
   Uses
      None
Comment: P2_MUX_STATE unused
P2_OUTP_CLR 40028024




ARM Macro Assembler    Page 74 Alphabetic symbol ordering
Absolute symbols

Symbol: P2_OUTP_CLR
   Definitions
      At line 892 in file ..\SRC\SYSTEM\LPC3200.INC
   Uses
      None
Comment: P2_OUTP_CLR unused
P2_OUTP_SET 40028020

Symbol: P2_OUTP_SET
   Definitions
      At line 891 in file ..\SRC\SYSTEM\LPC3200.INC
   Uses
      None
Comment: P2_OUTP_SET unused
P3_BASE_ADDR 40028000

Symbol: P3_BASE_ADDR
   Definitions
      At line 897 in file ..\SRC\SYSTEM\LPC3200.INC
   Uses
      At line 898 in file ..\SRC\SYSTEM\LPC3200.INC
      At line 899 in file ..\SRC\SYSTEM\LPC3200.INC
      At line 900 in file ..\SRC\SYSTEM\LPC3200.INC
      At line 901 in file ..\SRC\SYSTEM\LPC3200.INC

P3_INP_STATE 40028000

Symbol: P3_INP_STATE
   Definitions
      At line 898 in file ..\SRC\SYSTEM\LPC3200.INC
   Uses
      None
Comment: P3_INP_STATE unused
P3_MUX_CLR 40028114

Symbol: P3_MUX_CLR
   Definitions
      At line 868 in file ..\SRC\SYSTEM\LPC3200.INC
   Uses
      None
Comment: P3_MUX_CLR unused
P3_MUX_SET 40028110

Symbol: P3_MUX_SET
   Definitions
      At line 867 in file ..\SRC\SYSTEM\LPC3200.INC
   Uses
      None
Comment: P3_MUX_SET unused
P3_MUX_STATE 40028118

Symbol: P3_MUX_STATE
   Definitions
      At line 869 in file ..\SRC\SYSTEM\LPC3200.INC
   Uses
      None
Comment: P3_MUX_STATE unused
P3_OUTP_CLR 40028008




ARM Macro Assembler    Page 75 Alphabetic symbol ordering
Absolute symbols

Symbol: P3_OUTP_CLR
   Definitions
      At line 900 in file ..\SRC\SYSTEM\LPC3200.INC
   Uses
      None
Comment: P3_OUTP_CLR unused
P3_OUTP_SET 40028004

Symbol: P3_OUTP_SET
   Definitions
      At line 899 in file ..\SRC\SYSTEM\LPC3200.INC
   Uses
      None
Comment: P3_OUTP_SET unused
P3_OUTP_STATE 4002800C

Symbol: P3_OUTP_STATE
   Definitions
      At line 901 in file ..\SRC\SYSTEM\LPC3200.INC
   Uses
      None
Comment: P3_OUTP_STATE unused
PLL397_CTRL 40004048

Symbol: PLL397_CTRL
   Definitions
      At line 32 in file ..\SRC\SYSTEM\LPC3200.INC
   Uses
      None
Comment: PLL397_CTRL unused
PWM1_CTRL 4005C000

Symbol: PWM1_CTRL
   Definitions
      At line 851 in file ..\SRC\SYSTEM\LPC3200.INC
   Uses
      None
Comment: PWM1_CTRL unused
PWM2_CTRL 4005C004

Symbol: PWM2_CTRL
   Definitions
      At line 852 in file ..\SRC\SYSTEM\LPC3200.INC
   Uses
      None
Comment: PWM2_CTRL unused
PWMCLK_CTRL 400040B8

Symbol: PWMCLK_CTRL
   Definitions
      At line 64 in file ..\SRC\SYSTEM\LPC3200.INC
   Uses
      None
Comment: PWMCLK_CTRL unused
PWM_BASE_ADDR 4005C000

Symbol: PWM_BASE_ADDR
   Definitions
      At line 850 in file ..\SRC\SYSTEM\LPC3200.INC



ARM Macro Assembler    Page 76 Alphabetic symbol ordering
Absolute symbols

   Uses
      At line 851 in file ..\SRC\SYSTEM\LPC3200.INC
      At line 852 in file ..\SRC\SYSTEM\LPC3200.INC

PWR_CTRL 40004044

Symbol: PWR_CTRL
   Definitions
      At line 29 in file ..\SRC\SYSTEM\LPC3200.INC
   Uses
      None
Comment: PWR_CTRL unused
P_MUX_CLR 40028104

Symbol: P_MUX_CLR
   Definitions
      At line 856 in file ..\SRC\SYSTEM\LPC3200.INC
   Uses
      None
Comment: P_MUX_CLR unused
P_MUX_SET 40028100

Symbol: P_MUX_SET
   Definitions
      At line 855 in file ..\SRC\SYSTEM\LPC3200.INC
   Uses
      None
Comment: P_MUX_SET unused
P_MUX_STATE 40028108

Symbol: P_MUX_STATE
   Definitions
      At line 857 in file ..\SRC\SYSTEM\LPC3200.INC
   Uses
      None
Comment: P_MUX_STATE unused
REALIZE_EP 31020244

Symbol: REALIZE_EP
   Definitions
      At line 420 in file ..\SRC\SYSTEM\LPC3200.INC
   Uses
      None
Comment: REALIZE_EP unused
RTC_BASE_ADDR 40024000

Symbol: RTC_BASE_ADDR
   Definitions
      At line 801 in file ..\SRC\SYSTEM\LPC3200.INC
   Uses
      At line 802 in file ..\SRC\SYSTEM\LPC3200.INC
      At line 803 in file ..\SRC\SYSTEM\LPC3200.INC
      At line 804 in file ..\SRC\SYSTEM\LPC3200.INC
      At line 805 in file ..\SRC\SYSTEM\LPC3200.INC
      At line 806 in file ..\SRC\SYSTEM\LPC3200.INC
      At line 807 in file ..\SRC\SYSTEM\LPC3200.INC
      At line 808 in file ..\SRC\SYSTEM\LPC3200.INC
      At line 809 in file ..\SRC\SYSTEM\LPC3200.INC




ARM Macro Assembler    Page 77 Alphabetic symbol ordering
Absolute symbols

RTC_CTRL 40024010

Symbol: RTC_CTRL
   Definitions
      At line 806 in file ..\SRC\SYSTEM\LPC3200.INC
   Uses
      None
Comment: RTC_CTRL unused
RTC_DCOUNT 40024004

Symbol: RTC_DCOUNT
   Definitions
      At line 803 in file ..\SRC\SYSTEM\LPC3200.INC
   Uses
      None
Comment: RTC_DCOUNT unused
RTC_INTSTAT 40024014

Symbol: RTC_INTSTAT
   Definitions
      At line 807 in file ..\SRC\SYSTEM\LPC3200.INC
   Uses
      None
Comment: RTC_INTSTAT unused
RTC_KEY 40024018

Symbol: RTC_KEY
   Definitions
      At line 808 in file ..\SRC\SYSTEM\LPC3200.INC
   Uses
      None
Comment: RTC_KEY unused
RTC_MATCH0 40024008

Symbol: RTC_MATCH0
   Definitions
      At line 804 in file ..\SRC\SYSTEM\LPC3200.INC
   Uses
      None
Comment: RTC_MATCH0 unused
RTC_MATCH1 4002400C

Symbol: RTC_MATCH1
   Definitions
      At line 805 in file ..\SRC\SYSTEM\LPC3200.INC
   Uses
      None
Comment: RTC_MATCH1 unused
RTC_SRAM 40024080

Symbol: RTC_SRAM
   Definitions
      At line 809 in file ..\SRC\SYSTEM\LPC3200.INC
   Uses
      None
Comment: RTC_SRAM unused
RTC_UCOUNT 40024000

Symbol: RTC_UCOUNT



ARM Macro Assembler    Page 78 Alphabetic symbol ordering
Absolute symbols

   Definitions
      At line 802 in file ..\SRC\SYSTEM\LPC3200.INC
   Uses
      None
Comment: RTC_UCOUNT unused
RX_DATA 31020218

Symbol: RX_DATA
   Definitions
      At line 425 in file ..\SRC\SYSTEM\LPC3200.INC
   Uses
      None
Comment: RX_DATA unused
RX_PLENGTH 31020220

Symbol: RX_PLENGTH
   Definitions
      At line 427 in file ..\SRC\SYSTEM\LPC3200.INC
   Uses
      None
Comment: RX_PLENGTH unused
SDRAMCLK_CTRL 40004068

Symbol: SDRAMCLK_CTRL
   Definitions
      At line 166 in file ..\SRC\SYSTEM\LPC3200.INC
   Uses
      None
Comment: SDRAMCLK_CTRL unused
SDRAM_BASE_ADDR 31080000

Symbol: SDRAM_BASE_ADDR
   Definitions
      At line 168 in file ..\SRC\SYSTEM\LPC3200.INC
   Uses
      At line 169 in file ..\SRC\SYSTEM\LPC3200.INC
      At line 170 in file ..\SRC\SYSTEM\LPC3200.INC
      At line 171 in file ..\SRC\SYSTEM\LPC3200.INC
      At line 172 in file ..\SRC\SYSTEM\LPC3200.INC
      At line 173 in file ..\SRC\SYSTEM\LPC3200.INC
      At line 174 in file ..\SRC\SYSTEM\LPC3200.INC
      At line 175 in file ..\SRC\SYSTEM\LPC3200.INC
      At line 176 in file ..\SRC\SYSTEM\LPC3200.INC
      At line 177 in file ..\SRC\SYSTEM\LPC3200.INC
      At line 178 in file ..\SRC\SYSTEM\LPC3200.INC
      At line 179 in file ..\SRC\SYSTEM\LPC3200.INC
      At line 180 in file ..\SRC\SYSTEM\LPC3200.INC
      At line 181 in file ..\SRC\SYSTEM\LPC3200.INC
      At line 182 in file ..\SRC\SYSTEM\LPC3200.INC
      At line 183 in file ..\SRC\SYSTEM\LPC3200.INC
      At line 184 in file ..\SRC\SYSTEM\LPC3200.INC
      At line 185 in file ..\SRC\SYSTEM\LPC3200.INC
      At line 187 in file ..\SRC\SYSTEM\LPC3200.INC
      At line 188 in file ..\SRC\SYSTEM\LPC3200.INC
      At line 190 in file ..\SRC\SYSTEM\LPC3200.INC
      At line 191 in file ..\SRC\SYSTEM\LPC3200.INC
      At line 193 in file ..\SRC\SYSTEM\LPC3200.INC
      At line 194 in file ..\SRC\SYSTEM\LPC3200.INC
      At line 195 in file ..\SRC\SYSTEM\LPC3200.INC



ARM Macro Assembler    Page 79 Alphabetic symbol ordering
Absolute symbols

      At line 197 in file ..\SRC\SYSTEM\LPC3200.INC
      At line 198 in file ..\SRC\SYSTEM\LPC3200.INC
      At line 199 in file ..\SRC\SYSTEM\LPC3200.INC
      At line 201 in file ..\SRC\SYSTEM\LPC3200.INC
      At line 202 in file ..\SRC\SYSTEM\LPC3200.INC
      At line 203 in file ..\SRC\SYSTEM\LPC3200.INC
      At line 205 in file ..\SRC\SYSTEM\LPC3200.INC
      At line 206 in file ..\SRC\SYSTEM\LPC3200.INC
      At line 207 in file ..\SRC\SYSTEM\LPC3200.INC

SDRAM_CLK_BASE_ADDR 40004000

Symbol: SDRAM_CLK_BASE_ADDR
   Definitions
      At line 165 in file ..\SRC\SYSTEM\LPC3200.INC
   Uses
      At line 166 in file ..\SRC\SYSTEM\LPC3200.INC
Comment: SDRAM_CLK_BASE_ADDR used once
SD_ARGUMENT 20098008

Symbol: SD_ARGUMENT
   Definitions
      At line 499 in file ..\SRC\SYSTEM\LPC3200.INC
   Uses
      None
Comment: SD_ARGUMENT unused
SD_BASE_ADDR 20098000

Symbol: SD_BASE_ADDR
   Definitions
      At line 496 in file ..\SRC\SYSTEM\LPC3200.INC
   Uses
      At line 497 in file ..\SRC\SYSTEM\LPC3200.INC
      At line 498 in file ..\SRC\SYSTEM\LPC3200.INC
      At line 499 in file ..\SRC\SYSTEM\LPC3200.INC
      At line 500 in file ..\SRC\SYSTEM\LPC3200.INC
      At line 501 in file ..\SRC\SYSTEM\LPC3200.INC
      At line 502 in file ..\SRC\SYSTEM\LPC3200.INC
      At line 503 in file ..\SRC\SYSTEM\LPC3200.INC
      At line 504 in file ..\SRC\SYSTEM\LPC3200.INC
      At line 505 in file ..\SRC\SYSTEM\LPC3200.INC
      At line 506 in file ..\SRC\SYSTEM\LPC3200.INC
      At line 507 in file ..\SRC\SYSTEM\LPC3200.INC
      At line 508 in file ..\SRC\SYSTEM\LPC3200.INC
      At line 509 in file ..\SRC\SYSTEM\LPC3200.INC
      At line 510 in file ..\SRC\SYSTEM\LPC3200.INC
      At line 511 in file ..\SRC\SYSTEM\LPC3200.INC
      At line 512 in file ..\SRC\SYSTEM\LPC3200.INC
      At line 513 in file ..\SRC\SYSTEM\LPC3200.INC
      At line 514 in file ..\SRC\SYSTEM\LPC3200.INC
      At line 516 in file ..\SRC\SYSTEM\LPC3200.INC

SD_CLEAR 20098038

Symbol: SD_CLEAR
   Definitions
      At line 511 in file ..\SRC\SYSTEM\LPC3200.INC
   Uses
      None



ARM Macro Assembler    Page 80 Alphabetic symbol ordering
Absolute symbols

Comment: SD_CLEAR unused
SD_CLOCK 20098004

Symbol: SD_CLOCK
   Definitions
      At line 498 in file ..\SRC\SYSTEM\LPC3200.INC
   Uses
      None
Comment: SD_CLOCK unused
SD_COMMAND 2009800C

Symbol: SD_COMMAND
   Definitions
      At line 500 in file ..\SRC\SYSTEM\LPC3200.INC
   Uses
      None
Comment: SD_COMMAND unused
SD_DATACNT 20098030

Symbol: SD_DATACNT
   Definitions
      At line 509 in file ..\SRC\SYSTEM\LPC3200.INC
   Uses
      None
Comment: SD_DATACNT unused
SD_DATACTRL 2009802C

Symbol: SD_DATACTRL
   Definitions
      At line 508 in file ..\SRC\SYSTEM\LPC3200.INC
   Uses
      None
Comment: SD_DATACTRL unused
SD_DATALENGTH 20098028

Symbol: SD_DATALENGTH
   Definitions
      At line 507 in file ..\SRC\SYSTEM\LPC3200.INC
   Uses
      None
Comment: SD_DATALENGTH unused
SD_DATATIMER 20098024

Symbol: SD_DATATIMER
   Definitions
      At line 506 in file ..\SRC\SYSTEM\LPC3200.INC
   Uses
      None
Comment: SD_DATATIMER unused
SD_FIFO 20098080

Symbol: SD_FIFO
   Definitions
      At line 516 in file ..\SRC\SYSTEM\LPC3200.INC
   Uses
      None
Comment: SD_FIFO unused
SD_FIFOCNT 20098048




ARM Macro Assembler    Page 81 Alphabetic symbol ordering
Absolute symbols

Symbol: SD_FIFOCNT
   Definitions
      At line 514 in file ..\SRC\SYSTEM\LPC3200.INC
   Uses
      None
Comment: SD_FIFOCNT unused
SD_MASK0 2009803C

Symbol: SD_MASK0
   Definitions
      At line 512 in file ..\SRC\SYSTEM\LPC3200.INC
   Uses
      None
Comment: SD_MASK0 unused
SD_MASK1 20098040

Symbol: SD_MASK1
   Definitions
      At line 513 in file ..\SRC\SYSTEM\LPC3200.INC
   Uses
      None
Comment: SD_MASK1 unused
SD_POWER 20098000

Symbol: SD_POWER
   Definitions
      At line 497 in file ..\SRC\SYSTEM\LPC3200.INC
   Uses
      None
Comment: SD_POWER unused
SD_RESPCMD 20098010

Symbol: SD_RESPCMD
   Definitions
      At line 501 in file ..\SRC\SYSTEM\LPC3200.INC
   Uses
      None
Comment: SD_RESPCMD unused
SD_RESPONSE0 20098014

Symbol: SD_RESPONSE0
   Definitions
      At line 502 in file ..\SRC\SYSTEM\LPC3200.INC
   Uses
      None
Comment: SD_RESPONSE0 unused
SD_RESPONSE1 20098018

Symbol: SD_RESPONSE1
   Definitions
      At line 503 in file ..\SRC\SYSTEM\LPC3200.INC
   Uses
      None
Comment: SD_RESPONSE1 unused
SD_RESPONSE2 2009801C

Symbol: SD_RESPONSE2
   Definitions
      At line 504 in file ..\SRC\SYSTEM\LPC3200.INC



ARM Macro Assembler    Page 82 Alphabetic symbol ordering
Absolute symbols

   Uses
      None
Comment: SD_RESPONSE2 unused
SD_RESPONSE3 20098020

Symbol: SD_RESPONSE3
   Definitions
      At line 505 in file ..\SRC\SYSTEM\LPC3200.INC
   Uses
      None
Comment: SD_RESPONSE3 unused
SD_STATUS 20098034

Symbol: SD_STATUS
   Definitions
      At line 510 in file ..\SRC\SYSTEM\LPC3200.INC
   Uses
      None
Comment: SD_STATUS unused
SIC1_APR 4000C00C

Symbol: SIC1_APR
   Definitions
      At line 79 in file ..\SRC\SYSTEM\LPC3200.INC
   Uses
      At line 85 in file ..\SRC\SYSTEM\vicControl.s
      At line 749 in file ..\SRC\SYSTEM\vicControl.s
      At line 755 in file ..\SRC\SYSTEM\vicControl.s
      At line 933 in file ..\SRC\SYSTEM\vicControl.s
      At line 939 in file ..\SRC\SYSTEM\vicControl.s

SIC1_ATR 4000C010

Symbol: SIC1_ATR
   Definitions
      At line 80 in file ..\SRC\SYSTEM\LPC3200.INC
   Uses
      At line 87 in file ..\SRC\SYSTEM\vicControl.s
      At line 758 in file ..\SRC\SYSTEM\vicControl.s
      At line 764 in file ..\SRC\SYSTEM\vicControl.s
      At line 942 in file ..\SRC\SYSTEM\vicControl.s
      At line 948 in file ..\SRC\SYSTEM\vicControl.s

SIC1_BASE_ADDR 4000C000

Symbol: SIC1_BASE_ADDR
   Definitions
      At line 75 in file ..\SRC\SYSTEM\LPC3200.INC
   Uses
      At line 76 in file ..\SRC\SYSTEM\LPC3200.INC
      At line 77 in file ..\SRC\SYSTEM\LPC3200.INC
      At line 78 in file ..\SRC\SYSTEM\LPC3200.INC
      At line 79 in file ..\SRC\SYSTEM\LPC3200.INC
      At line 80 in file ..\SRC\SYSTEM\LPC3200.INC
      At line 81 in file ..\SRC\SYSTEM\LPC3200.INC

SIC1_ER 4000C000

Symbol: SIC1_ER



ARM Macro Assembler    Page 83 Alphabetic symbol ordering
Absolute symbols

   Definitions
      At line 76 in file ..\SRC\SYSTEM\LPC3200.INC
   Uses
      At line 81 in file ..\SRC\SYSTEM\vicControl.s
      At line 767 in file ..\SRC\SYSTEM\vicControl.s
      At line 811 in file ..\SRC\SYSTEM\vicControl.s
      At line 853 in file ..\SRC\SYSTEM\vicControl.s
      At line 891 in file ..\SRC\SYSTEM\vicControl.s
      At line 957 in file ..\SRC\SYSTEM\vicControl.s
      At line 992 in file ..\SRC\SYSTEM\vicControl.s

SIC1_ITR 4000C014

Symbol: SIC1_ITR
   Definitions
      At line 81 in file ..\SRC\SYSTEM\LPC3200.INC
   Uses
      At line 83 in file ..\SRC\SYSTEM\vicControl.s
      At line 730 in file ..\SRC\SYSTEM\vicControl.s
      At line 794 in file ..\SRC\SYSTEM\vicControl.s
      At line 951 in file ..\SRC\SYSTEM\vicControl.s
      At line 985 in file ..\SRC\SYSTEM\vicControl.s
      At line 997 in file ..\SRC\SYSTEM\vicControl.s

SIC1_RSR 4000C004

Symbol: SIC1_RSR
   Definitions
      At line 77 in file ..\SRC\SYSTEM\LPC3200.INC
   Uses
      At line 192 in file ..\SRC\SYSTEM\vicControl.s
Comment: SIC1_RSR used once
SIC1_SR 4000C008

Symbol: SIC1_SR
   Definitions
      At line 78 in file ..\SRC\SYSTEM\LPC3200.INC
   Uses
      At line 175 in file ..\SRC\SYSTEM\vicControl.s
      At line 186 in file ..\SRC\SYSTEM\vicControl.s

SIC2_APR 4001000C

Symbol: SIC2_APR
   Definitions
      At line 87 in file ..\SRC\SYSTEM\LPC3200.INC
   Uses
      At line 94 in file ..\SRC\SYSTEM\vicControl.s
      At line 1058 in file ..\SRC\SYSTEM\vicControl.s
      At line 1064 in file ..\SRC\SYSTEM\vicControl.s
      At line 1242 in file ..\SRC\SYSTEM\vicControl.s
      At line 1248 in file ..\SRC\SYSTEM\vicControl.s

SIC2_ATR 40010010

Symbol: SIC2_ATR
   Definitions
      At line 88 in file ..\SRC\SYSTEM\LPC3200.INC
   Uses



ARM Macro Assembler    Page 84 Alphabetic symbol ordering
Absolute symbols

      At line 96 in file ..\SRC\SYSTEM\vicControl.s
      At line 1073 in file ..\SRC\SYSTEM\vicControl.s
      At line 1251 in file ..\SRC\SYSTEM\vicControl.s
      At line 1257 in file ..\SRC\SYSTEM\vicControl.s

SIC2_BASE_ADDR 40010000

Symbol: SIC2_BASE_ADDR
   Definitions
      At line 83 in file ..\SRC\SYSTEM\LPC3200.INC
   Uses
      At line 84 in file ..\SRC\SYSTEM\LPC3200.INC
      At line 85 in file ..\SRC\SYSTEM\LPC3200.INC
      At line 86 in file ..\SRC\SYSTEM\LPC3200.INC
      At line 87 in file ..\SRC\SYSTEM\LPC3200.INC
      At line 88 in file ..\SRC\SYSTEM\LPC3200.INC
      At line 89 in file ..\SRC\SYSTEM\LPC3200.INC

SIC2_ER 40010000

Symbol: SIC2_ER
   Definitions
      At line 84 in file ..\SRC\SYSTEM\LPC3200.INC
   Uses
      At line 90 in file ..\SRC\SYSTEM\vicControl.s
      At line 1076 in file ..\SRC\SYSTEM\vicControl.s
      At line 1120 in file ..\SRC\SYSTEM\vicControl.s
      At line 1162 in file ..\SRC\SYSTEM\vicControl.s
      At line 1200 in file ..\SRC\SYSTEM\vicControl.s
      At line 1266 in file ..\SRC\SYSTEM\vicControl.s
      At line 1301 in file ..\SRC\SYSTEM\vicControl.s

SIC2_ITR 40010014

Symbol: SIC2_ITR
   Definitions
      At line 89 in file ..\SRC\SYSTEM\LPC3200.INC
   Uses
      At line 92 in file ..\SRC\SYSTEM\vicControl.s
      At line 1039 in file ..\SRC\SYSTEM\vicControl.s
      At line 1103 in file ..\SRC\SYSTEM\vicControl.s
      At line 1260 in file ..\SRC\SYSTEM\vicControl.s
      At line 1294 in file ..\SRC\SYSTEM\vicControl.s
      At line 1306 in file ..\SRC\SYSTEM\vicControl.s

SIC2_RSR 40010004

Symbol: SIC2_RSR
   Definitions
      At line 85 in file ..\SRC\SYSTEM\LPC3200.INC
   Uses
      At line 246 in file ..\SRC\SYSTEM\vicControl.s
Comment: SIC2_RSR used once
SIC2_SR 40010008

Symbol: SIC2_SR
   Definitions
      At line 86 in file ..\SRC\SYSTEM\LPC3200.INC
   Uses



ARM Macro Assembler    Page 85 Alphabetic symbol ordering
Absolute symbols

      At line 229 in file ..\SRC\SYSTEM\vicControl.s
      At line 240 in file ..\SRC\SYSTEM\vicControl.s

SLC_ADDR 20020004

Symbol: SLC_ADDR
   Definitions
      At line 273 in file ..\SRC\SYSTEM\LPC3200.INC
   Uses
      None
Comment: SLC_ADDR unused
SLC_BASE_ADDR 20020000

Symbol: SLC_BASE_ADDR
   Definitions
      At line 271 in file ..\SRC\SYSTEM\LPC3200.INC
   Uses
      At line 272 in file ..\SRC\SYSTEM\LPC3200.INC
      At line 273 in file ..\SRC\SYSTEM\LPC3200.INC
      At line 274 in file ..\SRC\SYSTEM\LPC3200.INC
      At line 275 in file ..\SRC\SYSTEM\LPC3200.INC
      At line 276 in file ..\SRC\SYSTEM\LPC3200.INC
      At line 277 in file ..\SRC\SYSTEM\LPC3200.INC
      At line 278 in file ..\SRC\SYSTEM\LPC3200.INC
      At line 279 in file ..\SRC\SYSTEM\LPC3200.INC
      At line 280 in file ..\SRC\SYSTEM\LPC3200.INC
      At line 281 in file ..\SRC\SYSTEM\LPC3200.INC
      At line 282 in file ..\SRC\SYSTEM\LPC3200.INC
      At line 283 in file ..\SRC\SYSTEM\LPC3200.INC
      At line 284 in file ..\SRC\SYSTEM\LPC3200.INC
      At line 285 in file ..\SRC\SYSTEM\LPC3200.INC
      At line 286 in file ..\SRC\SYSTEM\LPC3200.INC

SLC_CFG 20020014

Symbol: SLC_CFG
   Definitions
      At line 277 in file ..\SRC\SYSTEM\LPC3200.INC
   Uses
      None
Comment: SLC_CFG unused
SLC_CMD 20020008

Symbol: SLC_CMD
   Definitions
      At line 274 in file ..\SRC\SYSTEM\LPC3200.INC
   Uses
      None
Comment: SLC_CMD unused
SLC_CTRL 20020010

Symbol: SLC_CTRL
   Definitions
      At line 276 in file ..\SRC\SYSTEM\LPC3200.INC
   Uses
      None
Comment: SLC_CTRL unused
SLC_DATA 20020000




ARM Macro Assembler    Page 86 Alphabetic symbol ordering
Absolute symbols

Symbol: SLC_DATA
   Definitions
      At line 272 in file ..\SRC\SYSTEM\LPC3200.INC
   Uses
      None
Comment: SLC_DATA unused
SLC_DMA_DATA 20020038

Symbol: SLC_DMA_DATA
   Definitions
      At line 286 in file ..\SRC\SYSTEM\LPC3200.INC
   Uses
      None
Comment: SLC_DMA_DATA unused
SLC_ECC 20020034

Symbol: SLC_ECC
   Definitions
      At line 285 in file ..\SRC\SYSTEM\LPC3200.INC
   Uses
      None
Comment: SLC_ECC unused
SLC_ICR 20020028

Symbol: SLC_ICR
   Definitions
      At line 282 in file ..\SRC\SYSTEM\LPC3200.INC
   Uses
      None
Comment: SLC_ICR unused
SLC_IEN 20020020

Symbol: SLC_IEN
   Definitions
      At line 280 in file ..\SRC\SYSTEM\LPC3200.INC
   Uses
      None
Comment: SLC_IEN unused
SLC_INT_STAT 2002001C

Symbol: SLC_INT_STAT
   Definitions
      At line 279 in file ..\SRC\SYSTEM\LPC3200.INC
   Uses
      None
Comment: SLC_INT_STAT unused
SLC_ISR 20020024

Symbol: SLC_ISR
   Definitions
      At line 281 in file ..\SRC\SYSTEM\LPC3200.INC
   Uses
      None
Comment: SLC_ISR unused
SLC_STAT 20020018

Symbol: SLC_STAT
   Definitions
      At line 278 in file ..\SRC\SYSTEM\LPC3200.INC



ARM Macro Assembler    Page 87 Alphabetic symbol ordering
Absolute symbols

   Uses
      None
Comment: SLC_STAT unused
SLC_STOP 2002000C

Symbol: SLC_STOP
   Definitions
      At line 275 in file ..\SRC\SYSTEM\LPC3200.INC
   Uses
      None
Comment: SLC_STOP unused
SLC_TAC 2002002C

Symbol: SLC_TAC
   Definitions
      At line 283 in file ..\SRC\SYSTEM\LPC3200.INC
   Uses
      None
Comment: SLC_TAC unused
SLC_TC 20020030

Symbol: SLC_TC
   Definitions
      At line 284 in file ..\SRC\SYSTEM\LPC3200.INC
   Uses
      None
Comment: SLC_TC unused
SPI1_BASE_ADDR 20088000

Symbol: SPI1_BASE_ADDR
   Definitions
      At line 602 in file ..\SRC\SYSTEM\LPC3200.INC
   Uses
      At line 603 in file ..\SRC\SYSTEM\LPC3200.INC
      At line 604 in file ..\SRC\SYSTEM\LPC3200.INC
      At line 605 in file ..\SRC\SYSTEM\LPC3200.INC
      At line 606 in file ..\SRC\SYSTEM\LPC3200.INC
      At line 607 in file ..\SRC\SYSTEM\LPC3200.INC
      At line 608 in file ..\SRC\SYSTEM\LPC3200.INC
      At line 609 in file ..\SRC\SYSTEM\LPC3200.INC
      At line 610 in file ..\SRC\SYSTEM\LPC3200.INC
      At line 611 in file ..\SRC\SYSTEM\LPC3200.INC

SPI1_CON 20088004

Symbol: SPI1_CON
   Definitions
      At line 604 in file ..\SRC\SYSTEM\LPC3200.INC
   Uses
      None
Comment: SPI1_CON unused
SPI1_DAT 20088014

Symbol: SPI1_DAT
   Definitions
      At line 608 in file ..\SRC\SYSTEM\LPC3200.INC
   Uses
      None
Comment: SPI1_DAT unused



ARM Macro Assembler    Page 88 Alphabetic symbol ordering
Absolute symbols

SPI1_FRM 20088008

Symbol: SPI1_FRM
   Definitions
      At line 605 in file ..\SRC\SYSTEM\LPC3200.INC
   Uses
      None
Comment: SPI1_FRM unused
SPI1_GLOBAL 20088000

Symbol: SPI1_GLOBAL
   Definitions
      At line 603 in file ..\SRC\SYSTEM\LPC3200.INC
   Uses
      None
Comment: SPI1_GLOBAL unused
SPI1_IER 2008800C

Symbol: SPI1_IER
   Definitions
      At line 606 in file ..\SRC\SYSTEM\LPC3200.INC
   Uses
      None
Comment: SPI1_IER unused
SPI1_STAT 20088010

Symbol: SPI1_STAT
   Definitions
      At line 607 in file ..\SRC\SYSTEM\LPC3200.INC
   Uses
      None
Comment: SPI1_STAT unused
SPI1_TIM_COUNT 20088404

Symbol: SPI1_TIM_COUNT
   Definitions
      At line 610 in file ..\SRC\SYSTEM\LPC3200.INC
   Uses
      None
Comment: SPI1_TIM_COUNT unused
SPI1_TIM_CTRL 20088400

Symbol: SPI1_TIM_CTRL
   Definitions
      At line 609 in file ..\SRC\SYSTEM\LPC3200.INC
   Uses
      None
Comment: SPI1_TIM_CTRL unused
SPI1_TIM_STAT 20088408

Symbol: SPI1_TIM_STAT
   Definitions
      At line 611 in file ..\SRC\SYSTEM\LPC3200.INC
   Uses
      None
Comment: SPI1_TIM_STAT unused
SPI2_BASE_ADDR 20090000

Symbol: SPI2_BASE_ADDR



ARM Macro Assembler    Page 89 Alphabetic symbol ordering
Absolute symbols

   Definitions
      At line 613 in file ..\SRC\SYSTEM\LPC3200.INC
   Uses
      At line 614 in file ..\SRC\SYSTEM\LPC3200.INC
      At line 615 in file ..\SRC\SYSTEM\LPC3200.INC
      At line 616 in file ..\SRC\SYSTEM\LPC3200.INC
      At line 617 in file ..\SRC\SYSTEM\LPC3200.INC
      At line 618 in file ..\SRC\SYSTEM\LPC3200.INC
      At line 619 in file ..\SRC\SYSTEM\LPC3200.INC
      At line 620 in file ..\SRC\SYSTEM\LPC3200.INC
      At line 621 in file ..\SRC\SYSTEM\LPC3200.INC
      At line 622 in file ..\SRC\SYSTEM\LPC3200.INC

SPI2_CON 20090004

Symbol: SPI2_CON
   Definitions
      At line 615 in file ..\SRC\SYSTEM\LPC3200.INC
   Uses
      None
Comment: SPI2_CON unused
SPI2_DAT 20090014

Symbol: SPI2_DAT
   Definitions
      At line 619 in file ..\SRC\SYSTEM\LPC3200.INC
   Uses
      None
Comment: SPI2_DAT unused
SPI2_FRM 20090008

Symbol: SPI2_FRM
   Definitions
      At line 616 in file ..\SRC\SYSTEM\LPC3200.INC
   Uses
      None
Comment: SPI2_FRM unused
SPI2_GLOBAL 20090000

Symbol: SPI2_GLOBAL
   Definitions
      At line 614 in file ..\SRC\SYSTEM\LPC3200.INC
   Uses
      None
Comment: SPI2_GLOBAL unused
SPI2_IER 2009000C

Symbol: SPI2_IER
   Definitions
      At line 617 in file ..\SRC\SYSTEM\LPC3200.INC
   Uses
      None
Comment: SPI2_IER unused
SPI2_STAT 20090010

Symbol: SPI2_STAT
   Definitions
      At line 618 in file ..\SRC\SYSTEM\LPC3200.INC
   Uses



ARM Macro Assembler    Page 90 Alphabetic symbol ordering
Absolute symbols

      None
Comment: SPI2_STAT unused
SPI2_TIM_COUNT 20090404

Symbol: SPI2_TIM_COUNT
   Definitions
      At line 621 in file ..\SRC\SYSTEM\LPC3200.INC
   Uses
      None
Comment: SPI2_TIM_COUNT unused
SPI2_TIM_CTRL 20090400

Symbol: SPI2_TIM_CTRL
   Definitions
      At line 620 in file ..\SRC\SYSTEM\LPC3200.INC
   Uses
      None
Comment: SPI2_TIM_CTRL unused
SPI2_TIM_STAT 20090408

Symbol: SPI2_TIM_STAT
   Definitions
      At line 622 in file ..\SRC\SYSTEM\LPC3200.INC
   Uses
      None
Comment: SPI2_TIM_STAT unused
SPI_CTRL 400040C4

Symbol: SPI_CTRL
   Definitions
      At line 52 in file ..\SRC\SYSTEM\LPC3200.INC
   Uses
      None
Comment: SPI_CTRL unused
SSP0CPSR 20084010

Symbol: SSP0CPSR
   Definitions
      At line 629 in file ..\SRC\SYSTEM\LPC3200.INC
   Uses
      None
Comment: SSP0CPSR unused
SSP0CR0 20084000

Symbol: SSP0CR0
   Definitions
      At line 625 in file ..\SRC\SYSTEM\LPC3200.INC
   Uses
      None
Comment: SSP0CR0 unused
SSP0CR1 20084004

Symbol: SSP0CR1
   Definitions
      At line 626 in file ..\SRC\SYSTEM\LPC3200.INC
   Uses
      None
Comment: SSP0CR1 unused
SSP0DMACR 20084024



ARM Macro Assembler    Page 91 Alphabetic symbol ordering
Absolute symbols


Symbol: SSP0DMACR
   Definitions
      At line 634 in file ..\SRC\SYSTEM\LPC3200.INC
   Uses
      None
Comment: SSP0DMACR unused
SSP0DR 20084008

Symbol: SSP0DR
   Definitions
      At line 627 in file ..\SRC\SYSTEM\LPC3200.INC
   Uses
      None
Comment: SSP0DR unused
SSP0ICR 20084020

Symbol: SSP0ICR
   Definitions
      At line 633 in file ..\SRC\SYSTEM\LPC3200.INC
   Uses
      None
Comment: SSP0ICR unused
SSP0IMSC 20084014

Symbol: SSP0IMSC
   Definitions
      At line 630 in file ..\SRC\SYSTEM\LPC3200.INC
   Uses
      None
Comment: SSP0IMSC unused
SSP0MIS 2008401C

Symbol: SSP0MIS
   Definitions
      At line 632 in file ..\SRC\SYSTEM\LPC3200.INC
   Uses
      None
Comment: SSP0MIS unused
SSP0RIS 20084018

Symbol: SSP0RIS
   Definitions
      At line 631 in file ..\SRC\SYSTEM\LPC3200.INC
   Uses
      None
Comment: SSP0RIS unused
SSP0SR 2008400C

Symbol: SSP0SR
   Definitions
      At line 628 in file ..\SRC\SYSTEM\LPC3200.INC
   Uses
      None
Comment: SSP0SR unused
SSP0_BASE_ADDR 20084000

Symbol: SSP0_BASE_ADDR
   Definitions



ARM Macro Assembler    Page 92 Alphabetic symbol ordering
Absolute symbols

      At line 624 in file ..\SRC\SYSTEM\LPC3200.INC
   Uses
      At line 625 in file ..\SRC\SYSTEM\LPC3200.INC
      At line 626 in file ..\SRC\SYSTEM\LPC3200.INC
      At line 627 in file ..\SRC\SYSTEM\LPC3200.INC
      At line 628 in file ..\SRC\SYSTEM\LPC3200.INC
      At line 629 in file ..\SRC\SYSTEM\LPC3200.INC
      At line 630 in file ..\SRC\SYSTEM\LPC3200.INC
      At line 631 in file ..\SRC\SYSTEM\LPC3200.INC
      At line 632 in file ..\SRC\SYSTEM\LPC3200.INC
      At line 633 in file ..\SRC\SYSTEM\LPC3200.INC
      At line 634 in file ..\SRC\SYSTEM\LPC3200.INC

SSP1CPSR 2008C010

Symbol: SSP1CPSR
   Definitions
      At line 641 in file ..\SRC\SYSTEM\LPC3200.INC
   Uses
      None
Comment: SSP1CPSR unused
SSP1CR0 2008C000

Symbol: SSP1CR0
   Definitions
      At line 637 in file ..\SRC\SYSTEM\LPC3200.INC
   Uses
      None
Comment: SSP1CR0 unused
SSP1CR1 2008C004

Symbol: SSP1CR1
   Definitions
      At line 638 in file ..\SRC\SYSTEM\LPC3200.INC
   Uses
      None
Comment: SSP1CR1 unused
SSP1DMACR 2008C024

Symbol: SSP1DMACR
   Definitions
      At line 646 in file ..\SRC\SYSTEM\LPC3200.INC
   Uses
      None
Comment: SSP1DMACR unused
SSP1DR 2008C008

Symbol: SSP1DR
   Definitions
      At line 639 in file ..\SRC\SYSTEM\LPC3200.INC
   Uses
      None
Comment: SSP1DR unused
SSP1ICR 2008C020

Symbol: SSP1ICR
   Definitions
      At line 645 in file ..\SRC\SYSTEM\LPC3200.INC
   Uses



ARM Macro Assembler    Page 93 Alphabetic symbol ordering
Absolute symbols

      None
Comment: SSP1ICR unused
SSP1IMSC 2008C014

Symbol: SSP1IMSC
   Definitions
      At line 642 in file ..\SRC\SYSTEM\LPC3200.INC
   Uses
      None
Comment: SSP1IMSC unused
SSP1MIS 2008C01C

Symbol: SSP1MIS
   Definitions
      At line 644 in file ..\SRC\SYSTEM\LPC3200.INC
   Uses
      None
Comment: SSP1MIS unused
SSP1RIS 2008C018

Symbol: SSP1RIS
   Definitions
      At line 643 in file ..\SRC\SYSTEM\LPC3200.INC
   Uses
      None
Comment: SSP1RIS unused
SSP1SR 2008C00C

Symbol: SSP1SR
   Definitions
      At line 640 in file ..\SRC\SYSTEM\LPC3200.INC
   Uses
      None
Comment: SSP1SR unused
SSP1_BASE_ADDR 2008C000

Symbol: SSP1_BASE_ADDR
   Definitions
      At line 636 in file ..\SRC\SYSTEM\LPC3200.INC
   Uses
      At line 637 in file ..\SRC\SYSTEM\LPC3200.INC
      At line 638 in file ..\SRC\SYSTEM\LPC3200.INC
      At line 639 in file ..\SRC\SYSTEM\LPC3200.INC
      At line 640 in file ..\SRC\SYSTEM\LPC3200.INC
      At line 641 in file ..\SRC\SYSTEM\LPC3200.INC
      At line 642 in file ..\SRC\SYSTEM\LPC3200.INC
      At line 643 in file ..\SRC\SYSTEM\LPC3200.INC
      At line 644 in file ..\SRC\SYSTEM\LPC3200.INC
      At line 645 in file ..\SRC\SYSTEM\LPC3200.INC
      At line 646 in file ..\SRC\SYSTEM\LPC3200.INC

SSP_CTRL 40004078

Symbol: SSP_CTRL
   Definitions
      At line 57 in file ..\SRC\SYSTEM\LPC3200.INC
   Uses
      None
Comment: SSP_CTRL unused



ARM Macro Assembler    Page 94 Alphabetic symbol ordering
Absolute symbols

START_APR_INT 4000402C

Symbol: START_APR_INT
   Definitions
      At line 44 in file ..\SRC\SYSTEM\LPC3200.INC
   Uses
      None
Comment: START_APR_INT unused
START_APR_PIN 4000403C

Symbol: START_APR_PIN
   Definitions
      At line 45 in file ..\SRC\SYSTEM\LPC3200.INC
   Uses
      None
Comment: START_APR_PIN unused
START_ER_INT 40004020

Symbol: START_ER_INT
   Definitions
      At line 38 in file ..\SRC\SYSTEM\LPC3200.INC
   Uses
      None
Comment: START_ER_INT unused
START_ER_PIN 40004030

Symbol: START_ER_PIN
   Definitions
      At line 39 in file ..\SRC\SYSTEM\LPC3200.INC
   Uses
      None
Comment: START_ER_PIN unused
START_RSR_INT 40004024

Symbol: START_RSR_INT
   Definitions
      At line 40 in file ..\SRC\SYSTEM\LPC3200.INC
   Uses
      None
Comment: START_RSR_INT unused
START_RSR_PIN 40004034

Symbol: START_RSR_PIN
   Definitions
      At line 41 in file ..\SRC\SYSTEM\LPC3200.INC
   Uses
      None
Comment: START_RSR_PIN unused
START_SR_INT 40004028

Symbol: START_SR_INT
   Definitions
      At line 42 in file ..\SRC\SYSTEM\LPC3200.INC
   Uses
      None
Comment: START_SR_INT unused
START_SR_PIN 40004038

Symbol: START_SR_PIN



ARM Macro Assembler    Page 95 Alphabetic symbol ordering
Absolute symbols

   Definitions
      At line 43 in file ..\SRC\SYSTEM\LPC3200.INC
   Uses
      None
Comment: START_SR_PIN unused
SVC32Mode 00000013

Symbol: SVC32Mode
   Definitions
      At line 31 in file ..\SRC\SYSTEM\vicControl.s
   Uses
      At line 449 in file ..\SRC\SYSTEM\vicControl.s
      At line 513 in file ..\SRC\SYSTEM\vicControl.s
      At line 549 in file ..\SRC\SYSTEM\vicControl.s
      At line 583 in file ..\SRC\SYSTEM\vicControl.s
      At line 608 in file ..\SRC\SYSTEM\vicControl.s
      At line 670 in file ..\SRC\SYSTEM\vicControl.s
      At line 743 in file ..\SRC\SYSTEM\vicControl.s
      At line 810 in file ..\SRC\SYSTEM\vicControl.s
      At line 852 in file ..\SRC\SYSTEM\vicControl.s
      At line 889 in file ..\SRC\SYSTEM\vicControl.s
      At line 914 in file ..\SRC\SYSTEM\vicControl.s
      At line 979 in file ..\SRC\SYSTEM\vicControl.s
      At line 1052 in file ..\SRC\SYSTEM\vicControl.s
      At line 1119 in file ..\SRC\SYSTEM\vicControl.s
      At line 1161 in file ..\SRC\SYSTEM\vicControl.s
      At line 1198 in file ..\SRC\SYSTEM\vicControl.s
      At line 1223 in file ..\SRC\SYSTEM\vicControl.s
      At line 1288 in file ..\SRC\SYSTEM\vicControl.s

SWI_BASE_ADDR 40004000

Symbol: SWI_BASE_ADDR
   Definitions
      At line 91 in file ..\SRC\SYSTEM\LPC3200.INC
   Uses
      At line 92 in file ..\SRC\SYSTEM\LPC3200.INC
Comment: SWI_BASE_ADDR used once
SW_INT 400040A8

Symbol: SW_INT
   Definitions
      At line 92 in file ..\SRC\SYSTEM\LPC3200.INC
   Uses
      None
Comment: SW_INT unused
SYS32Mode 0000001F

Symbol: SYS32Mode
   Definitions
      At line 32 in file ..\SRC\SYSTEM\vicControl.s
   Uses
      At line 293 in file ..\SRC\SYSTEM\vicControl.s
      At line 433 in file ..\SRC\SYSTEM\vicControl.s
      At line 725 in file ..\SRC\SYSTEM\vicControl.s
      At line 1034 in file ..\SRC\SYSTEM\vicControl.s

SYSCLK_CTRL 40004050




ARM Macro Assembler    Page 96 Alphabetic symbol ordering
Absolute symbols

Symbol: SYSCLK_CTRL
   Definitions
      At line 31 in file ..\SRC\SYSTEM\LPC3200.INC
   Uses
      None
Comment: SYSCLK_CTRL unused
SYSCTRL_BASE_ADDR 40004000

Symbol: SYSCTRL_BASE_ADDR
   Definitions
      At line 24 in file ..\SRC\SYSTEM\LPC3200.INC
   Uses
      None
Comment: SYSCTRL_BASE_ADDR unused
SYS_ERR_INT_CLR 310202BC

Symbol: SYS_ERR_INT_CLR
   Definitions
      At line 448 in file ..\SRC\SYSTEM\LPC3200.INC
   Uses
      None
Comment: SYS_ERR_INT_CLR unused
SYS_ERR_INT_SET 310202C0

Symbol: SYS_ERR_INT_SET
   Definitions
      At line 449 in file ..\SRC\SYSTEM\LPC3200.INC
   Uses
      None
Comment: SYS_ERR_INT_SET unused
SYS_ERR_INT_STAT 310202B8

Symbol: SYS_ERR_INT_STAT
   Definitions
      At line 447 in file ..\SRC\SYSTEM\LPC3200.INC
   Uses
      None
Comment: SYS_ERR_INT_STAT unused
T0CCR 40044028

Symbol: T0CCR
   Definitions
      At line 713 in file ..\SRC\SYSTEM\LPC3200.INC
   Uses
      None
Comment: T0CCR unused
T0CR0 4004402C

Symbol: T0CR0
   Definitions
      At line 714 in file ..\SRC\SYSTEM\LPC3200.INC
   Uses
      None
Comment: T0CR0 unused
T0CR1 40044030

Symbol: T0CR1
   Definitions
      At line 715 in file ..\SRC\SYSTEM\LPC3200.INC



ARM Macro Assembler    Page 97 Alphabetic symbol ordering
Absolute symbols

   Uses
      None
Comment: T0CR1 unused
T0CR2 40044034

Symbol: T0CR2
   Definitions
      At line 716 in file ..\SRC\SYSTEM\LPC3200.INC
   Uses
      None
Comment: T0CR2 unused
T0CR3 40044038

Symbol: T0CR3
   Definitions
      At line 717 in file ..\SRC\SYSTEM\LPC3200.INC
   Uses
      None
Comment: T0CR3 unused
T0CTCR 40044070

Symbol: T0CTCR
   Definitions
      At line 719 in file ..\SRC\SYSTEM\LPC3200.INC
   Uses
      None
Comment: T0CTCR unused
T0EMR 4004403C

Symbol: T0EMR
   Definitions
      At line 718 in file ..\SRC\SYSTEM\LPC3200.INC
   Uses
      None
Comment: T0EMR unused
T0IR 40044000

Symbol: T0IR
   Definitions
      At line 703 in file ..\SRC\SYSTEM\LPC3200.INC
   Uses
      None
Comment: T0IR unused
T0MCR 40044014

Symbol: T0MCR
   Definitions
      At line 708 in file ..\SRC\SYSTEM\LPC3200.INC
   Uses
      None
Comment: T0MCR unused
T0MR0 40044018

Symbol: T0MR0
   Definitions
      At line 709 in file ..\SRC\SYSTEM\LPC3200.INC
   Uses
      None
Comment: T0MR0 unused



ARM Macro Assembler    Page 98 Alphabetic symbol ordering
Absolute symbols

T0MR1 4004401C

Symbol: T0MR1
   Definitions
      At line 710 in file ..\SRC\SYSTEM\LPC3200.INC
   Uses
      None
Comment: T0MR1 unused
T0MR2 40044020

Symbol: T0MR2
   Definitions
      At line 711 in file ..\SRC\SYSTEM\LPC3200.INC
   Uses
      None
Comment: T0MR2 unused
T0MR3 40044024

Symbol: T0MR3
   Definitions
      At line 712 in file ..\SRC\SYSTEM\LPC3200.INC
   Uses
      None
Comment: T0MR3 unused
T0PC 40044010

Symbol: T0PC
   Definitions
      At line 707 in file ..\SRC\SYSTEM\LPC3200.INC
   Uses
      None
Comment: T0PC unused
T0PR 4004400C

Symbol: T0PR
   Definitions
      At line 706 in file ..\SRC\SYSTEM\LPC3200.INC
   Uses
      None
Comment: T0PR unused
T0TC 40044008

Symbol: T0TC
   Definitions
      At line 705 in file ..\SRC\SYSTEM\LPC3200.INC
   Uses
      None
Comment: T0TC unused
T0TCR 40044004

Symbol: T0TCR
   Definitions
      At line 704 in file ..\SRC\SYSTEM\LPC3200.INC
   Uses
      None
Comment: T0TCR unused
T1CCR 4004C028

Symbol: T1CCR



ARM Macro Assembler    Page 99 Alphabetic symbol ordering
Absolute symbols

   Definitions
      At line 733 in file ..\SRC\SYSTEM\LPC3200.INC
   Uses
      None
Comment: T1CCR unused
T1CR0 4004C02C

Symbol: T1CR0
   Definitions
      At line 734 in file ..\SRC\SYSTEM\LPC3200.INC
   Uses
      None
Comment: T1CR0 unused
T1CR1 4004C030

Symbol: T1CR1
   Definitions
      At line 735 in file ..\SRC\SYSTEM\LPC3200.INC
   Uses
      None
Comment: T1CR1 unused
T1CR2 4004C034

Symbol: T1CR2
   Definitions
      At line 736 in file ..\SRC\SYSTEM\LPC3200.INC
   Uses
      None
Comment: T1CR2 unused
T1CR3 4004C038

Symbol: T1CR3
   Definitions
      At line 737 in file ..\SRC\SYSTEM\LPC3200.INC
   Uses
      None
Comment: T1CR3 unused
T1CTCR 4004C070

Symbol: T1CTCR
   Definitions
      At line 739 in file ..\SRC\SYSTEM\LPC3200.INC
   Uses
      None
Comment: T1CTCR unused
T1EMR 4004C03C

Symbol: T1EMR
   Definitions
      At line 738 in file ..\SRC\SYSTEM\LPC3200.INC
   Uses
      None
Comment: T1EMR unused
T1IR 4004C000

Symbol: T1IR
   Definitions
      At line 723 in file ..\SRC\SYSTEM\LPC3200.INC
   Uses



ARM Macro Assembler    Page 100 Alphabetic symbol ordering
Absolute symbols

      None
Comment: T1IR unused
T1MCR 4004C014

Symbol: T1MCR
   Definitions
      At line 728 in file ..\SRC\SYSTEM\LPC3200.INC
   Uses
      None
Comment: T1MCR unused
T1MR0 4004C018

Symbol: T1MR0
   Definitions
      At line 729 in file ..\SRC\SYSTEM\LPC3200.INC
   Uses
      None
Comment: T1MR0 unused
T1MR1 4004C01C

Symbol: T1MR1
   Definitions
      At line 730 in file ..\SRC\SYSTEM\LPC3200.INC
   Uses
      None
Comment: T1MR1 unused
T1MR2 4004C020

Symbol: T1MR2
   Definitions
      At line 731 in file ..\SRC\SYSTEM\LPC3200.INC
   Uses
      None
Comment: T1MR2 unused
T1MR3 4004C024

Symbol: T1MR3
   Definitions
      At line 732 in file ..\SRC\SYSTEM\LPC3200.INC
   Uses
      None
Comment: T1MR3 unused
T1PC 4004C010

Symbol: T1PC
   Definitions
      At line 727 in file ..\SRC\SYSTEM\LPC3200.INC
   Uses
      None
Comment: T1PC unused
T1PR 4004C00C

Symbol: T1PR
   Definitions
      At line 726 in file ..\SRC\SYSTEM\LPC3200.INC
   Uses
      None
Comment: T1PR unused
T1TC 4004C008



ARM Macro Assembler    Page 101 Alphabetic symbol ordering
Absolute symbols


Symbol: T1TC
   Definitions
      At line 725 in file ..\SRC\SYSTEM\LPC3200.INC
   Uses
      None
Comment: T1TC unused
T1TCR 4004C004

Symbol: T1TCR
   Definitions
      At line 724 in file ..\SRC\SYSTEM\LPC3200.INC
   Uses
      None
Comment: T1TCR unused
T2CCR 40058028

Symbol: T2CCR
   Definitions
      At line 752 in file ..\SRC\SYSTEM\LPC3200.INC
   Uses
      None
Comment: T2CCR unused
T2CR0 4005802C

Symbol: T2CR0
   Definitions
      At line 753 in file ..\SRC\SYSTEM\LPC3200.INC
   Uses
      None
Comment: T2CR0 unused
T2CR1 40058030

Symbol: T2CR1
   Definitions
      At line 754 in file ..\SRC\SYSTEM\LPC3200.INC
   Uses
      None
Comment: T2CR1 unused
T2CR2 40058034

Symbol: T2CR2
   Definitions
      At line 755 in file ..\SRC\SYSTEM\LPC3200.INC
   Uses
      None
Comment: T2CR2 unused
T2CR3 40058038

Symbol: T2CR3
   Definitions
      At line 756 in file ..\SRC\SYSTEM\LPC3200.INC
   Uses
      None
Comment: T2CR3 unused
T2CTCR 40058070

Symbol: T2CTCR
   Definitions



ARM Macro Assembler    Page 102 Alphabetic symbol ordering
Absolute symbols

      At line 758 in file ..\SRC\SYSTEM\LPC3200.INC
   Uses
      None
Comment: T2CTCR unused
T2EMR 4005803C

Symbol: T2EMR
   Definitions
      At line 757 in file ..\SRC\SYSTEM\LPC3200.INC
   Uses
      None
Comment: T2EMR unused
T2IR 40058000

Symbol: T2IR
   Definitions
      At line 742 in file ..\SRC\SYSTEM\LPC3200.INC
   Uses
      None
Comment: T2IR unused
T2MCR 40058014

Symbol: T2MCR
   Definitions
      At line 747 in file ..\SRC\SYSTEM\LPC3200.INC
   Uses
      None
Comment: T2MCR unused
T2MR0 40058018

Symbol: T2MR0
   Definitions
      At line 748 in file ..\SRC\SYSTEM\LPC3200.INC
   Uses
      None
Comment: T2MR0 unused
T2MR1 4005801C

Symbol: T2MR1
   Definitions
      At line 749 in file ..\SRC\SYSTEM\LPC3200.INC
   Uses
      None
Comment: T2MR1 unused
T2MR2 40058020

Symbol: T2MR2
   Definitions
      At line 750 in file ..\SRC\SYSTEM\LPC3200.INC
   Uses
      None
Comment: T2MR2 unused
T2MR3 40058024

Symbol: T2MR3
   Definitions
      At line 751 in file ..\SRC\SYSTEM\LPC3200.INC
   Uses
      None



ARM Macro Assembler    Page 103 Alphabetic symbol ordering
Absolute symbols

Comment: T2MR3 unused
T2PC 40058010

Symbol: T2PC
   Definitions
      At line 746 in file ..\SRC\SYSTEM\LPC3200.INC
   Uses
      None
Comment: T2PC unused
T2PR 4005800C

Symbol: T2PR
   Definitions
      At line 745 in file ..\SRC\SYSTEM\LPC3200.INC
   Uses
      None
Comment: T2PR unused
T2TC 40058008

Symbol: T2TC
   Definitions
      At line 744 in file ..\SRC\SYSTEM\LPC3200.INC
   Uses
      None
Comment: T2TC unused
T2TCR 40058004

Symbol: T2TCR
   Definitions
      At line 743 in file ..\SRC\SYSTEM\LPC3200.INC
   Uses
      None
Comment: T2TCR unused
T3CCR 40060028

Symbol: T3CCR
   Definitions
      At line 771 in file ..\SRC\SYSTEM\LPC3200.INC
   Uses
      None
Comment: T3CCR unused
T3CR0 4006002C

Symbol: T3CR0
   Definitions
      At line 772 in file ..\SRC\SYSTEM\LPC3200.INC
   Uses
      None
Comment: T3CR0 unused
T3CR1 40060030

Symbol: T3CR1
   Definitions
      At line 773 in file ..\SRC\SYSTEM\LPC3200.INC
   Uses
      None
Comment: T3CR1 unused
T3CR2 40060034




ARM Macro Assembler    Page 104 Alphabetic symbol ordering
Absolute symbols

Symbol: T3CR2
   Definitions
      At line 774 in file ..\SRC\SYSTEM\LPC3200.INC
   Uses
      None
Comment: T3CR2 unused
T3CR3 40060038

Symbol: T3CR3
   Definitions
      At line 775 in file ..\SRC\SYSTEM\LPC3200.INC
   Uses
      None
Comment: T3CR3 unused
T3CTCR 40060070

Symbol: T3CTCR
   Definitions
      At line 777 in file ..\SRC\SYSTEM\LPC3200.INC
   Uses
      None
Comment: T3CTCR unused
T3EMR 4006003C

Symbol: T3EMR
   Definitions
      At line 776 in file ..\SRC\SYSTEM\LPC3200.INC
   Uses
      None
Comment: T3EMR unused
T3IR 40060000

Symbol: T3IR
   Definitions
      At line 761 in file ..\SRC\SYSTEM\LPC3200.INC
   Uses
      None
Comment: T3IR unused
T3MCR 40060014

Symbol: T3MCR
   Definitions
      At line 766 in file ..\SRC\SYSTEM\LPC3200.INC
   Uses
      None
Comment: T3MCR unused
T3MR0 40060018

Symbol: T3MR0
   Definitions
      At line 767 in file ..\SRC\SYSTEM\LPC3200.INC
   Uses
      None
Comment: T3MR0 unused
T3MR1 4006001C

Symbol: T3MR1
   Definitions
      At line 768 in file ..\SRC\SYSTEM\LPC3200.INC



ARM Macro Assembler    Page 105 Alphabetic symbol ordering
Absolute symbols

   Uses
      None
Comment: T3MR1 unused
T3MR2 40060020

Symbol: T3MR2
   Definitions
      At line 769 in file ..\SRC\SYSTEM\LPC3200.INC
   Uses
      None
Comment: T3MR2 unused
T3MR3 40060024

Symbol: T3MR3
   Definitions
      At line 770 in file ..\SRC\SYSTEM\LPC3200.INC
   Uses
      None
Comment: T3MR3 unused
T3PC 40060010

Symbol: T3PC
   Definitions
      At line 765 in file ..\SRC\SYSTEM\LPC3200.INC
   Uses
      None
Comment: T3PC unused
T3PR 4006000C

Symbol: T3PR
   Definitions
      At line 764 in file ..\SRC\SYSTEM\LPC3200.INC
   Uses
      None
Comment: T3PR unused
T3TC 40060008

Symbol: T3TC
   Definitions
      At line 763 in file ..\SRC\SYSTEM\LPC3200.INC
   Uses
      None
Comment: T3TC unused
T3TCR 40060004

Symbol: T3TCR
   Definitions
      At line 762 in file ..\SRC\SYSTEM\LPC3200.INC
   Uses
      None
Comment: T3TCR unused
TEST_CLK 400040A4

Symbol: TEST_CLK
   Definitions
      At line 35 in file ..\SRC\SYSTEM\LPC3200.INC
   Uses
      None
Comment: TEST_CLK unused



ARM Macro Assembler    Page 106 Alphabetic symbol ordering
Absolute symbols

TIMCLK_CTRL 400040BC

Symbol: TIMCLK_CTRL
   Definitions
      At line 51 in file ..\SRC\SYSTEM\LPC3200.INC
   Uses
      None
Comment: TIMCLK_CTRL unused
TIMCLK_CTRL1 400040C0

Symbol: TIMCLK_CTRL1
   Definitions
      At line 60 in file ..\SRC\SYSTEM\LPC3200.INC
   Uses
      None
Comment: TIMCLK_CTRL1 unused
TIMER0_BASE_ADDR 40044000

Symbol: TIMER0_BASE_ADDR
   Definitions
      At line 702 in file ..\SRC\SYSTEM\LPC3200.INC
   Uses
      At line 703 in file ..\SRC\SYSTEM\LPC3200.INC
      At line 704 in file ..\SRC\SYSTEM\LPC3200.INC
      At line 705 in file ..\SRC\SYSTEM\LPC3200.INC
      At line 706 in file ..\SRC\SYSTEM\LPC3200.INC
      At line 707 in file ..\SRC\SYSTEM\LPC3200.INC
      At line 708 in file ..\SRC\SYSTEM\LPC3200.INC
      At line 709 in file ..\SRC\SYSTEM\LPC3200.INC
      At line 710 in file ..\SRC\SYSTEM\LPC3200.INC
      At line 711 in file ..\SRC\SYSTEM\LPC3200.INC
      At line 712 in file ..\SRC\SYSTEM\LPC3200.INC
      At line 713 in file ..\SRC\SYSTEM\LPC3200.INC
      At line 714 in file ..\SRC\SYSTEM\LPC3200.INC
      At line 715 in file ..\SRC\SYSTEM\LPC3200.INC
      At line 716 in file ..\SRC\SYSTEM\LPC3200.INC
      At line 717 in file ..\SRC\SYSTEM\LPC3200.INC
      At line 718 in file ..\SRC\SYSTEM\LPC3200.INC
      At line 719 in file ..\SRC\SYSTEM\LPC3200.INC

TIMER1_BASE_ADDR 4004C000

Symbol: TIMER1_BASE_ADDR
   Definitions
      At line 722 in file ..\SRC\SYSTEM\LPC3200.INC
   Uses
      At line 723 in file ..\SRC\SYSTEM\LPC3200.INC
      At line 724 in file ..\SRC\SYSTEM\LPC3200.INC
      At line 725 in file ..\SRC\SYSTEM\LPC3200.INC
      At line 726 in file ..\SRC\SYSTEM\LPC3200.INC
      At line 727 in file ..\SRC\SYSTEM\LPC3200.INC
      At line 728 in file ..\SRC\SYSTEM\LPC3200.INC
      At line 729 in file ..\SRC\SYSTEM\LPC3200.INC
      At line 730 in file ..\SRC\SYSTEM\LPC3200.INC
      At line 731 in file ..\SRC\SYSTEM\LPC3200.INC
      At line 732 in file ..\SRC\SYSTEM\LPC3200.INC
      At line 733 in file ..\SRC\SYSTEM\LPC3200.INC
      At line 734 in file ..\SRC\SYSTEM\LPC3200.INC
      At line 735 in file ..\SRC\SYSTEM\LPC3200.INC



ARM Macro Assembler    Page 107 Alphabetic symbol ordering
Absolute symbols

      At line 736 in file ..\SRC\SYSTEM\LPC3200.INC
      At line 737 in file ..\SRC\SYSTEM\LPC3200.INC
      At line 738 in file ..\SRC\SYSTEM\LPC3200.INC
      At line 739 in file ..\SRC\SYSTEM\LPC3200.INC

TIMER2_BASE_ADDR 40058000

Symbol: TIMER2_BASE_ADDR
   Definitions
      At line 741 in file ..\SRC\SYSTEM\LPC3200.INC
   Uses
      At line 742 in file ..\SRC\SYSTEM\LPC3200.INC
      At line 743 in file ..\SRC\SYSTEM\LPC3200.INC
      At line 744 in file ..\SRC\SYSTEM\LPC3200.INC
      At line 745 in file ..\SRC\SYSTEM\LPC3200.INC
      At line 746 in file ..\SRC\SYSTEM\LPC3200.INC
      At line 747 in file ..\SRC\SYSTEM\LPC3200.INC
      At line 748 in file ..\SRC\SYSTEM\LPC3200.INC
      At line 749 in file ..\SRC\SYSTEM\LPC3200.INC
      At line 750 in file ..\SRC\SYSTEM\LPC3200.INC
      At line 751 in file ..\SRC\SYSTEM\LPC3200.INC
      At line 752 in file ..\SRC\SYSTEM\LPC3200.INC
      At line 753 in file ..\SRC\SYSTEM\LPC3200.INC
      At line 754 in file ..\SRC\SYSTEM\LPC3200.INC
      At line 755 in file ..\SRC\SYSTEM\LPC3200.INC
      At line 756 in file ..\SRC\SYSTEM\LPC3200.INC
      At line 757 in file ..\SRC\SYSTEM\LPC3200.INC
      At line 758 in file ..\SRC\SYSTEM\LPC3200.INC

TIMER3_BASE_ADDR 40060000

Symbol: TIMER3_BASE_ADDR
   Definitions
      At line 760 in file ..\SRC\SYSTEM\LPC3200.INC
   Uses
      At line 761 in file ..\SRC\SYSTEM\LPC3200.INC
      At line 762 in file ..\SRC\SYSTEM\LPC3200.INC
      At line 763 in file ..\SRC\SYSTEM\LPC3200.INC
      At line 764 in file ..\SRC\SYSTEM\LPC3200.INC
      At line 765 in file ..\SRC\SYSTEM\LPC3200.INC
      At line 766 in file ..\SRC\SYSTEM\LPC3200.INC
      At line 767 in file ..\SRC\SYSTEM\LPC3200.INC
      At line 768 in file ..\SRC\SYSTEM\LPC3200.INC
      At line 769 in file ..\SRC\SYSTEM\LPC3200.INC
      At line 770 in file ..\SRC\SYSTEM\LPC3200.INC
      At line 771 in file ..\SRC\SYSTEM\LPC3200.INC
      At line 772 in file ..\SRC\SYSTEM\LPC3200.INC
      At line 773 in file ..\SRC\SYSTEM\LPC3200.INC
      At line 774 in file ..\SRC\SYSTEM\LPC3200.INC
      At line 775 in file ..\SRC\SYSTEM\LPC3200.INC
      At line 776 in file ..\SRC\SYSTEM\LPC3200.INC
      At line 777 in file ..\SRC\SYSTEM\LPC3200.INC

TOUCH_BASE_ADDR 40048000

Symbol: TOUCH_BASE_ADDR
   Definitions
      At line 317 in file ..\SRC\SYSTEM\LPC3200.INC
   Uses



ARM Macro Assembler    Page 108 Alphabetic symbol ordering
Absolute symbols

      At line 318 in file ..\SRC\SYSTEM\LPC3200.INC
      At line 319 in file ..\SRC\SYSTEM\LPC3200.INC
      At line 320 in file ..\SRC\SYSTEM\LPC3200.INC
      At line 321 in file ..\SRC\SYSTEM\LPC3200.INC
      At line 322 in file ..\SRC\SYSTEM\LPC3200.INC
      At line 323 in file ..\SRC\SYSTEM\LPC3200.INC
      At line 324 in file ..\SRC\SYSTEM\LPC3200.INC
      At line 325 in file ..\SRC\SYSTEM\LPC3200.INC
      At line 326 in file ..\SRC\SYSTEM\LPC3200.INC
      At line 327 in file ..\SRC\SYSTEM\LPC3200.INC
      At line 328 in file ..\SRC\SYSTEM\LPC3200.INC
      At line 329 in file ..\SRC\SYSTEM\LPC3200.INC
      At line 330 in file ..\SRC\SYSTEM\LPC3200.INC
      At line 331 in file ..\SRC\SYSTEM\LPC3200.INC
      At line 332 in file ..\SRC\SYSTEM\LPC3200.INC
      At line 333 in file ..\SRC\SYSTEM\LPC3200.INC
      At line 334 in file ..\SRC\SYSTEM\LPC3200.INC
      At line 335 in file ..\SRC\SYSTEM\LPC3200.INC

TSC_AUX_MAX 4004803C

Symbol: TSC_AUX_MAX
   Definitions
      At line 333 in file ..\SRC\SYSTEM\LPC3200.INC
   Uses
      None
Comment: TSC_AUX_MAX unused
TSC_AUX_MIN 40048038

Symbol: TSC_AUX_MIN
   Definitions
      At line 332 in file ..\SRC\SYSTEM\LPC3200.INC
   Uses
      None
Comment: TSC_AUX_MIN unused
TSC_AUX_UTR 40048034

Symbol: TSC_AUX_UTR
   Definitions
      At line 331 in file ..\SRC\SYSTEM\LPC3200.INC
   Uses
      None
Comment: TSC_AUX_UTR unused
TSC_AUX_VALUE 40048044

Symbol: TSC_AUX_VALUE
   Definitions
      At line 334 in file ..\SRC\SYSTEM\LPC3200.INC
   Uses
      None
Comment: TSC_AUX_VALUE unused
TSC_DTR 40048010

Symbol: TSC_DTR
   Definitions
      At line 322 in file ..\SRC\SYSTEM\LPC3200.INC
   Uses
      None
Comment: TSC_DTR unused



ARM Macro Assembler    Page 109 Alphabetic symbol ordering
Absolute symbols

TSC_DXP 40048020

Symbol: TSC_DXP
   Definitions
      At line 326 in file ..\SRC\SYSTEM\LPC3200.INC
   Uses
      None
Comment: TSC_DXP unused
TSC_MAX_X 40048028

Symbol: TSC_MAX_X
   Definitions
      At line 328 in file ..\SRC\SYSTEM\LPC3200.INC
   Uses
      None
Comment: TSC_MAX_X unused
TSC_MAX_Y 40048030

Symbol: TSC_MAX_Y
   Definitions
      At line 330 in file ..\SRC\SYSTEM\LPC3200.INC
   Uses
      None
Comment: TSC_MAX_Y unused
TSC_MIN_X 40048024

Symbol: TSC_MIN_X
   Definitions
      At line 327 in file ..\SRC\SYSTEM\LPC3200.INC
   Uses
      None
Comment: TSC_MIN_X unused
TSC_MIN_Y 4004802C

Symbol: TSC_MIN_Y
   Definitions
      At line 329 in file ..\SRC\SYSTEM\LPC3200.INC
   Uses
      None
Comment: TSC_MIN_Y unused
TSC_RTR 40048014

Symbol: TSC_RTR
   Definitions
      At line 323 in file ..\SRC\SYSTEM\LPC3200.INC
   Uses
      None
Comment: TSC_RTR unused
TSC_SAMPLE_FIFO 4004800C

Symbol: TSC_SAMPLE_FIFO
   Definitions
      At line 321 in file ..\SRC\SYSTEM\LPC3200.INC
   Uses
      None
Comment: TSC_SAMPLE_FIFO unused
TSC_TTR 4004801C

Symbol: TSC_TTR



ARM Macro Assembler    Page 110 Alphabetic symbol ordering
Absolute symbols

   Definitions
      At line 325 in file ..\SRC\SYSTEM\LPC3200.INC
   Uses
      None
Comment: TSC_TTR unused
TSC_UTR 40048018

Symbol: TSC_UTR
   Definitions
      At line 324 in file ..\SRC\SYSTEM\LPC3200.INC
   Uses
      None
Comment: TSC_UTR unused
TX_DATA 3102021C

Symbol: TX_DATA
   Definitions
      At line 426 in file ..\SRC\SYSTEM\LPC3200.INC
   Uses
      None
Comment: TX_DATA unused
TX_PLENGTH 31020224

Symbol: TX_PLENGTH
   Definitions
      At line 428 in file ..\SRC\SYSTEM\LPC3200.INC
   Uses
      None
Comment: TX_PLENGTH unused
U3CLK 400040D0

Symbol: U3CLK
   Definitions
      At line 567 in file ..\SRC\SYSTEM\LPC3200.INC
   Uses
      None
Comment: U3CLK unused
U3DLL 40080000

Symbol: U3DLL
   Definitions
      At line 521 in file ..\SRC\SYSTEM\LPC3200.INC
   Uses
      None
Comment: U3DLL unused
U3DLM 40080004

Symbol: U3DLM
   Definitions
      At line 522 in file ..\SRC\SYSTEM\LPC3200.INC
   Uses
      None
Comment: U3DLM unused
U3FCR 40080008

Symbol: U3FCR
   Definitions
      At line 525 in file ..\SRC\SYSTEM\LPC3200.INC
   Uses



ARM Macro Assembler    Page 111 Alphabetic symbol ordering
Absolute symbols

      None
Comment: U3FCR unused
U3IER 40080004

Symbol: U3IER
   Definitions
      At line 523 in file ..\SRC\SYSTEM\LPC3200.INC
   Uses
      None
Comment: U3IER unused
U3IIR 40080008

Symbol: U3IIR
   Definitions
      At line 524 in file ..\SRC\SYSTEM\LPC3200.INC
   Uses
      None
Comment: U3IIR unused
U3LCR 4008000C

Symbol: U3LCR
   Definitions
      At line 526 in file ..\SRC\SYSTEM\LPC3200.INC
   Uses
      None
Comment: U3LCR unused
U3LSR 40080014

Symbol: U3LSR
   Definitions
      At line 527 in file ..\SRC\SYSTEM\LPC3200.INC
   Uses
      None
Comment: U3LSR unused
U3RBR 40080000

Symbol: U3RBR
   Definitions
      At line 519 in file ..\SRC\SYSTEM\LPC3200.INC
   Uses
      None
Comment: U3RBR unused
U3RXLEV 4008001C

Symbol: U3RXLEV
   Definitions
      At line 528 in file ..\SRC\SYSTEM\LPC3200.INC
   Uses
      None
Comment: U3RXLEV unused
U3THR 40080000

Symbol: U3THR
   Definitions
      At line 520 in file ..\SRC\SYSTEM\LPC3200.INC
   Uses
      None
Comment: U3THR unused
U4CLK 400040D4



ARM Macro Assembler    Page 112 Alphabetic symbol ordering
Absolute symbols


Symbol: U4CLK
   Definitions
      At line 568 in file ..\SRC\SYSTEM\LPC3200.INC
   Uses
      None
Comment: U4CLK unused
U4DLL 40088000

Symbol: U4DLL
   Definitions
      At line 533 in file ..\SRC\SYSTEM\LPC3200.INC
   Uses
      None
Comment: U4DLL unused
U4DLM 40088004

Symbol: U4DLM
   Definitions
      At line 534 in file ..\SRC\SYSTEM\LPC3200.INC
   Uses
      None
Comment: U4DLM unused
U4FCR 40088008

Symbol: U4FCR
   Definitions
      At line 537 in file ..\SRC\SYSTEM\LPC3200.INC
   Uses
      None
Comment: U4FCR unused
U4IER 40088004

Symbol: U4IER
   Definitions
      At line 535 in file ..\SRC\SYSTEM\LPC3200.INC
   Uses
      None
Comment: U4IER unused
U4IIR 40088008

Symbol: U4IIR
   Definitions
      At line 536 in file ..\SRC\SYSTEM\LPC3200.INC
   Uses
      None
Comment: U4IIR unused
U4LCR 4008800C

Symbol: U4LCR
   Definitions
      At line 538 in file ..\SRC\SYSTEM\LPC3200.INC
   Uses
      None
Comment: U4LCR unused
U4LSR 40088014

Symbol: U4LSR
   Definitions



ARM Macro Assembler    Page 113 Alphabetic symbol ordering
Absolute symbols

      At line 539 in file ..\SRC\SYSTEM\LPC3200.INC
   Uses
      None
Comment: U4LSR unused
U4RBR 40088000

Symbol: U4RBR
   Definitions
      At line 531 in file ..\SRC\SYSTEM\LPC3200.INC
   Uses
      None
Comment: U4RBR unused
U4RXLEV 4008801C

Symbol: U4RXLEV
   Definitions
      At line 540 in file ..\SRC\SYSTEM\LPC3200.INC
   Uses
      None
Comment: U4RXLEV unused
U4THR 40088000

Symbol: U4THR
   Definitions
      At line 532 in file ..\SRC\SYSTEM\LPC3200.INC
   Uses
      None
Comment: U4THR unused
U5CLK 400040D8

Symbol: U5CLK
   Definitions
      At line 569 in file ..\SRC\SYSTEM\LPC3200.INC
   Uses
      None
Comment: U5CLK unused
U5DLL 40090000

Symbol: U5DLL
   Definitions
      At line 545 in file ..\SRC\SYSTEM\LPC3200.INC
   Uses
      None
Comment: U5DLL unused
U5DLM 40090004

Symbol: U5DLM
   Definitions
      At line 546 in file ..\SRC\SYSTEM\LPC3200.INC
   Uses
      None
Comment: U5DLM unused
U5FCR 40090008

Symbol: U5FCR
   Definitions
      At line 549 in file ..\SRC\SYSTEM\LPC3200.INC
   Uses
      None



ARM Macro Assembler    Page 114 Alphabetic symbol ordering
Absolute symbols

Comment: U5FCR unused
U5IER 40090004

Symbol: U5IER
   Definitions
      At line 547 in file ..\SRC\SYSTEM\LPC3200.INC
   Uses
      None
Comment: U5IER unused
U5IIR 40090008

Symbol: U5IIR
   Definitions
      At line 548 in file ..\SRC\SYSTEM\LPC3200.INC
   Uses
      None
Comment: U5IIR unused
U5LCR 4009000C

Symbol: U5LCR
   Definitions
      At line 550 in file ..\SRC\SYSTEM\LPC3200.INC
   Uses
      None
Comment: U5LCR unused
U5LSR 40090014

Symbol: U5LSR
   Definitions
      At line 551 in file ..\SRC\SYSTEM\LPC3200.INC
   Uses
      None
Comment: U5LSR unused
U5RBR 40090000

Symbol: U5RBR
   Definitions
      At line 543 in file ..\SRC\SYSTEM\LPC3200.INC
   Uses
      None
Comment: U5RBR unused
U5RXLEV 4009001C

Symbol: U5RXLEV
   Definitions
      At line 552 in file ..\SRC\SYSTEM\LPC3200.INC
   Uses
      None
Comment: U5RXLEV unused
U5THR 40090000

Symbol: U5THR
   Definitions
      At line 544 in file ..\SRC\SYSTEM\LPC3200.INC
   Uses
      None
Comment: U5THR unused
U6CLK 400040DC




ARM Macro Assembler    Page 115 Alphabetic symbol ordering
Absolute symbols

Symbol: U6CLK
   Definitions
      At line 570 in file ..\SRC\SYSTEM\LPC3200.INC
   Uses
      None
Comment: U6CLK unused
U6DLL 40098000

Symbol: U6DLL
   Definitions
      At line 557 in file ..\SRC\SYSTEM\LPC3200.INC
   Uses
      None
Comment: U6DLL unused
U6DLM 40098004

Symbol: U6DLM
   Definitions
      At line 558 in file ..\SRC\SYSTEM\LPC3200.INC
   Uses
      None
Comment: U6DLM unused
U6FCR 40098008

Symbol: U6FCR
   Definitions
      At line 561 in file ..\SRC\SYSTEM\LPC3200.INC
   Uses
      None
Comment: U6FCR unused
U6IER 40098004

Symbol: U6IER
   Definitions
      At line 559 in file ..\SRC\SYSTEM\LPC3200.INC
   Uses
      None
Comment: U6IER unused
U6IIR 40098008

Symbol: U6IIR
   Definitions
      At line 560 in file ..\SRC\SYSTEM\LPC3200.INC
   Uses
      None
Comment: U6IIR unused
U6LCR 4009800C

Symbol: U6LCR
   Definitions
      At line 562 in file ..\SRC\SYSTEM\LPC3200.INC
   Uses
      None
Comment: U6LCR unused
U6LSR 40098014

Symbol: U6LSR
   Definitions
      At line 563 in file ..\SRC\SYSTEM\LPC3200.INC



ARM Macro Assembler    Page 116 Alphabetic symbol ordering
Absolute symbols

   Uses
      None
Comment: U6LSR unused
U6RBR 40098000

Symbol: U6RBR
   Definitions
      At line 555 in file ..\SRC\SYSTEM\LPC3200.INC
   Uses
      None
Comment: U6RBR unused
U6RXLEV 4009801C

Symbol: U6RXLEV
   Definitions
      At line 564 in file ..\SRC\SYSTEM\LPC3200.INC
   Uses
      None
Comment: U6RXLEV unused
U6THR 40098000

Symbol: U6THR
   Definitions
      At line 556 in file ..\SRC\SYSTEM\LPC3200.INC
   Uses
      None
Comment: U6THR unused
UART3_BASE_ADDR 40080000

Symbol: UART3_BASE_ADDR
   Definitions
      At line 518 in file ..\SRC\SYSTEM\LPC3200.INC
   Uses
      At line 519 in file ..\SRC\SYSTEM\LPC3200.INC
      At line 520 in file ..\SRC\SYSTEM\LPC3200.INC
      At line 521 in file ..\SRC\SYSTEM\LPC3200.INC
      At line 522 in file ..\SRC\SYSTEM\LPC3200.INC
      At line 523 in file ..\SRC\SYSTEM\LPC3200.INC
      At line 524 in file ..\SRC\SYSTEM\LPC3200.INC
      At line 525 in file ..\SRC\SYSTEM\LPC3200.INC
      At line 526 in file ..\SRC\SYSTEM\LPC3200.INC
      At line 527 in file ..\SRC\SYSTEM\LPC3200.INC
      At line 528 in file ..\SRC\SYSTEM\LPC3200.INC

UART4_BASE_ADDR 40088000

Symbol: UART4_BASE_ADDR
   Definitions
      At line 530 in file ..\SRC\SYSTEM\LPC3200.INC
   Uses
      At line 531 in file ..\SRC\SYSTEM\LPC3200.INC
      At line 532 in file ..\SRC\SYSTEM\LPC3200.INC
      At line 533 in file ..\SRC\SYSTEM\LPC3200.INC
      At line 534 in file ..\SRC\SYSTEM\LPC3200.INC
      At line 535 in file ..\SRC\SYSTEM\LPC3200.INC
      At line 536 in file ..\SRC\SYSTEM\LPC3200.INC
      At line 537 in file ..\SRC\SYSTEM\LPC3200.INC
      At line 538 in file ..\SRC\SYSTEM\LPC3200.INC
      At line 539 in file ..\SRC\SYSTEM\LPC3200.INC



ARM Macro Assembler    Page 117 Alphabetic symbol ordering
Absolute symbols

      At line 540 in file ..\SRC\SYSTEM\LPC3200.INC

UART5_BASE_ADDR 40090000

Symbol: UART5_BASE_ADDR
   Definitions
      At line 542 in file ..\SRC\SYSTEM\LPC3200.INC
   Uses
      At line 543 in file ..\SRC\SYSTEM\LPC3200.INC
      At line 544 in file ..\SRC\SYSTEM\LPC3200.INC
      At line 545 in file ..\SRC\SYSTEM\LPC3200.INC
      At line 546 in file ..\SRC\SYSTEM\LPC3200.INC
      At line 547 in file ..\SRC\SYSTEM\LPC3200.INC
      At line 548 in file ..\SRC\SYSTEM\LPC3200.INC
      At line 549 in file ..\SRC\SYSTEM\LPC3200.INC
      At line 550 in file ..\SRC\SYSTEM\LPC3200.INC
      At line 551 in file ..\SRC\SYSTEM\LPC3200.INC
      At line 552 in file ..\SRC\SYSTEM\LPC3200.INC

UART6_BASE_ADDR 40098000

Symbol: UART6_BASE_ADDR
   Definitions
      At line 554 in file ..\SRC\SYSTEM\LPC3200.INC
   Uses
      At line 555 in file ..\SRC\SYSTEM\LPC3200.INC
      At line 556 in file ..\SRC\SYSTEM\LPC3200.INC
      At line 557 in file ..\SRC\SYSTEM\LPC3200.INC
      At line 558 in file ..\SRC\SYSTEM\LPC3200.INC
      At line 559 in file ..\SRC\SYSTEM\LPC3200.INC
      At line 560 in file ..\SRC\SYSTEM\LPC3200.INC
      At line 561 in file ..\SRC\SYSTEM\LPC3200.INC
      At line 562 in file ..\SRC\SYSTEM\LPC3200.INC
      At line 563 in file ..\SRC\SYSTEM\LPC3200.INC
      At line 564 in file ..\SRC\SYSTEM\LPC3200.INC

UARTCLK_CTRL 400040E4

Symbol: UARTCLK_CTRL
   Definitions
      At line 65 in file ..\SRC\SYSTEM\LPC3200.INC
   Uses
      None
Comment: UARTCLK_CTRL unused
UART_CLKMODE 40054004

Symbol: UART_CLKMODE
   Definitions
      At line 575 in file ..\SRC\SYSTEM\LPC3200.INC
   Uses
      None
Comment: UART_CLKMODE unused
UART_CLK_BASE_ADDR 40004000

Symbol: UART_CLK_BASE_ADDR
   Definitions
      At line 566 in file ..\SRC\SYSTEM\LPC3200.INC
   Uses
      At line 567 in file ..\SRC\SYSTEM\LPC3200.INC



ARM Macro Assembler    Page 118 Alphabetic symbol ordering
Absolute symbols

      At line 568 in file ..\SRC\SYSTEM\LPC3200.INC
      At line 569 in file ..\SRC\SYSTEM\LPC3200.INC
      At line 570 in file ..\SRC\SYSTEM\LPC3200.INC
      At line 571 in file ..\SRC\SYSTEM\LPC3200.INC

UART_CTRL 40054000

Symbol: UART_CTRL
   Definitions
      At line 574 in file ..\SRC\SYSTEM\LPC3200.INC
   Uses
      None
Comment: UART_CTRL unused
UART_CTRL_BASE_ADDR 40054000

Symbol: UART_CTRL_BASE_ADDR
   Definitions
      At line 573 in file ..\SRC\SYSTEM\LPC3200.INC
   Uses
      At line 574 in file ..\SRC\SYSTEM\LPC3200.INC
      At line 575 in file ..\SRC\SYSTEM\LPC3200.INC
      At line 576 in file ..\SRC\SYSTEM\LPC3200.INC

UART_LOOP 40054008

Symbol: UART_LOOP
   Definitions
      At line 576 in file ..\SRC\SYSTEM\LPC3200.INC
   Uses
      None
Comment: UART_LOOP unused
UDCA_HEAD 31020280

Symbol: UDCA_HEAD
   Definitions
      At line 435 in file ..\SRC\SYSTEM\LPC3200.INC
   Uses
      None
Comment: UDCA_HEAD unused
USBCLK_CTRL 40004064

Symbol: USBCLK_CTRL
   Definitions
      At line 49 in file ..\SRC\SYSTEM\LPC3200.INC
   Uses
      None
Comment: USBCLK_CTRL unused
USBDIV_CTRL 4000401C

Symbol: USBDIV_CTRL
   Definitions
      At line 48 in file ..\SRC\SYSTEM\LPC3200.INC
   Uses
      None
Comment: USBDIV_CTRL unused
USBH_BASE_ADDR 31020000

Symbol: USBH_BASE_ADDR
   Definitions



ARM Macro Assembler    Page 119 Alphabetic symbol ordering
Absolute symbols

      At line 452 in file ..\SRC\SYSTEM\LPC3200.INC
   Uses
      At line 453 in file ..\SRC\SYSTEM\LPC3200.INC
      At line 454 in file ..\SRC\SYSTEM\LPC3200.INC
      At line 455 in file ..\SRC\SYSTEM\LPC3200.INC
      At line 456 in file ..\SRC\SYSTEM\LPC3200.INC
      At line 457 in file ..\SRC\SYSTEM\LPC3200.INC
      At line 458 in file ..\SRC\SYSTEM\LPC3200.INC
      At line 459 in file ..\SRC\SYSTEM\LPC3200.INC
      At line 460 in file ..\SRC\SYSTEM\LPC3200.INC
      At line 461 in file ..\SRC\SYSTEM\LPC3200.INC
      At line 462 in file ..\SRC\SYSTEM\LPC3200.INC
      At line 463 in file ..\SRC\SYSTEM\LPC3200.INC
      At line 464 in file ..\SRC\SYSTEM\LPC3200.INC
      At line 465 in file ..\SRC\SYSTEM\LPC3200.INC
      At line 466 in file ..\SRC\SYSTEM\LPC3200.INC
      At line 467 in file ..\SRC\SYSTEM\LPC3200.INC
      At line 468 in file ..\SRC\SYSTEM\LPC3200.INC
      At line 469 in file ..\SRC\SYSTEM\LPC3200.INC
      At line 470 in file ..\SRC\SYSTEM\LPC3200.INC
      At line 471 in file ..\SRC\SYSTEM\LPC3200.INC
      At line 472 in file ..\SRC\SYSTEM\LPC3200.INC
      At line 473 in file ..\SRC\SYSTEM\LPC3200.INC
      At line 474 in file ..\SRC\SYSTEM\LPC3200.INC
      At line 475 in file ..\SRC\SYSTEM\LPC3200.INC
      At line 476 in file ..\SRC\SYSTEM\LPC3200.INC

USB_BASE_ADDR 31020200

Symbol: USB_BASE_ADDR
   Definitions
      At line 408 in file ..\SRC\SYSTEM\LPC3200.INC
   Uses
      At line 410 in file ..\SRC\SYSTEM\LPC3200.INC
      At line 411 in file ..\SRC\SYSTEM\LPC3200.INC
      At line 412 in file ..\SRC\SYSTEM\LPC3200.INC
      At line 413 in file ..\SRC\SYSTEM\LPC3200.INC
      At line 414 in file ..\SRC\SYSTEM\LPC3200.INC
      At line 415 in file ..\SRC\SYSTEM\LPC3200.INC
      At line 416 in file ..\SRC\SYSTEM\LPC3200.INC
      At line 417 in file ..\SRC\SYSTEM\LPC3200.INC
      At line 418 in file ..\SRC\SYSTEM\LPC3200.INC
      At line 419 in file ..\SRC\SYSTEM\LPC3200.INC
      At line 420 in file ..\SRC\SYSTEM\LPC3200.INC
      At line 421 in file ..\SRC\SYSTEM\LPC3200.INC
      At line 422 in file ..\SRC\SYSTEM\LPC3200.INC
      At line 423 in file ..\SRC\SYSTEM\LPC3200.INC
      At line 424 in file ..\SRC\SYSTEM\LPC3200.INC
      At line 425 in file ..\SRC\SYSTEM\LPC3200.INC
      At line 426 in file ..\SRC\SYSTEM\LPC3200.INC
      At line 427 in file ..\SRC\SYSTEM\LPC3200.INC
      At line 428 in file ..\SRC\SYSTEM\LPC3200.INC
      At line 429 in file ..\SRC\SYSTEM\LPC3200.INC
      At line 430 in file ..\SRC\SYSTEM\LPC3200.INC
      At line 432 in file ..\SRC\SYSTEM\LPC3200.INC
      At line 433 in file ..\SRC\SYSTEM\LPC3200.INC
      At line 434 in file ..\SRC\SYSTEM\LPC3200.INC
      At line 435 in file ..\SRC\SYSTEM\LPC3200.INC
      At line 436 in file ..\SRC\SYSTEM\LPC3200.INC



ARM Macro Assembler    Page 120 Alphabetic symbol ordering
Absolute symbols

      At line 437 in file ..\SRC\SYSTEM\LPC3200.INC
      At line 438 in file ..\SRC\SYSTEM\LPC3200.INC
      At line 439 in file ..\SRC\SYSTEM\LPC3200.INC
      At line 440 in file ..\SRC\SYSTEM\LPC3200.INC
      At line 441 in file ..\SRC\SYSTEM\LPC3200.INC
      At line 442 in file ..\SRC\SYSTEM\LPC3200.INC
      At line 443 in file ..\SRC\SYSTEM\LPC3200.INC
      At line 444 in file ..\SRC\SYSTEM\LPC3200.INC
      At line 445 in file ..\SRC\SYSTEM\LPC3200.INC
      At line 446 in file ..\SRC\SYSTEM\LPC3200.INC
      At line 447 in file ..\SRC\SYSTEM\LPC3200.INC
      At line 448 in file ..\SRC\SYSTEM\LPC3200.INC
      At line 449 in file ..\SRC\SYSTEM\LPC3200.INC
      At line 450 in file ..\SRC\SYSTEM\LPC3200.INC

USB_CTRL 31020228

Symbol: USB_CTRL
   Definitions
      At line 429 in file ..\SRC\SYSTEM\LPC3200.INC
   Uses
      None
Comment: USB_CTRL unused
USB_OTG_BASE_ADDR 31020000

Symbol: USB_OTG_BASE_ADDR
   Definitions
      At line 478 in file ..\SRC\SYSTEM\LPC3200.INC
   Uses
      At line 479 in file ..\SRC\SYSTEM\LPC3200.INC
      At line 480 in file ..\SRC\SYSTEM\LPC3200.INC
      At line 481 in file ..\SRC\SYSTEM\LPC3200.INC
      At line 482 in file ..\SRC\SYSTEM\LPC3200.INC
      At line 483 in file ..\SRC\SYSTEM\LPC3200.INC
      At line 484 in file ..\SRC\SYSTEM\LPC3200.INC
      At line 485 in file ..\SRC\SYSTEM\LPC3200.INC
      At line 486 in file ..\SRC\SYSTEM\LPC3200.INC

VIC_STACK_LEGTH 00000060

Symbol: VIC_STACK_LEGTH
   Definitions
      At line 34 in file ..\SRC\SYSTEM\vicControl.s
   Uses
      At line 99 in file ..\SRC\SYSTEM\vicControl.s
      At line 1316 in file ..\SRC\SYSTEM\vicControl.s

WDTIM_BASE_ADDR 4003C000

Symbol: WDTIM_BASE_ADDR
   Definitions
      At line 811 in file ..\SRC\SYSTEM\LPC3200.INC
   Uses
      At line 812 in file ..\SRC\SYSTEM\LPC3200.INC
      At line 813 in file ..\SRC\SYSTEM\LPC3200.INC
      At line 814 in file ..\SRC\SYSTEM\LPC3200.INC
      At line 815 in file ..\SRC\SYSTEM\LPC3200.INC
      At line 816 in file ..\SRC\SYSTEM\LPC3200.INC
      At line 817 in file ..\SRC\SYSTEM\LPC3200.INC



ARM Macro Assembler    Page 121 Alphabetic symbol ordering
Absolute symbols

      At line 818 in file ..\SRC\SYSTEM\LPC3200.INC
      At line 819 in file ..\SRC\SYSTEM\LPC3200.INC

WDTIM_COUNTER 4003C008

Symbol: WDTIM_COUNTER
   Definitions
      At line 814 in file ..\SRC\SYSTEM\LPC3200.INC
   Uses
      None
Comment: WDTIM_COUNTER unused
WDTIM_CTRL 4003C004

Symbol: WDTIM_CTRL
   Definitions
      At line 813 in file ..\SRC\SYSTEM\LPC3200.INC
   Uses
      None
Comment: WDTIM_CTRL unused
WDTIM_EMR 4003C014

Symbol: WDTIM_EMR
   Definitions
      At line 817 in file ..\SRC\SYSTEM\LPC3200.INC
   Uses
      None
Comment: WDTIM_EMR unused
WDTIM_INT 4003C000

Symbol: WDTIM_INT
   Definitions
      At line 812 in file ..\SRC\SYSTEM\LPC3200.INC
   Uses
      None
Comment: WDTIM_INT unused
WDTIM_MATCH0 4003C010

Symbol: WDTIM_MATCH0
   Definitions
      At line 816 in file ..\SRC\SYSTEM\LPC3200.INC
   Uses
      None
Comment: WDTIM_MATCH0 unused
WDTIM_MCTRL 4003C00C

Symbol: WDTIM_MCTRL
   Definitions
      At line 815 in file ..\SRC\SYSTEM\LPC3200.INC
   Uses
      None
Comment: WDTIM_MCTRL unused
WDTIM_PULSE 4003C018

Symbol: WDTIM_PULSE
   Definitions
      At line 818 in file ..\SRC\SYSTEM\LPC3200.INC
   Uses
      None
Comment: WDTIM_PULSE unused



ARM Macro Assembler    Page 122 Alphabetic symbol ordering
Absolute symbols

WDTIM_RES 4003C01C

Symbol: WDTIM_RES
   Definitions
      At line 819 in file ..\SRC\SYSTEM\LPC3200.INC
   Uses
      None
Comment: WDTIM_RES unused
iap_entry 7FFFFFF1

Symbol: iap_entry
   Definitions
      At line 913 in file ..\SRC\SYSTEM\LPC3200.INC
   Uses
      None
Comment: iap_entry unused
rm_dataabort_handler 7FFFFFC0

Symbol: rm_dataabort_handler
   Definitions
      At line 910 in file ..\SRC\SYSTEM\LPC3200.INC
   Uses
      None
Comment: rm_dataabort_handler unused
rm_init_entry 7FFFFF91

Symbol: rm_init_entry
   Definitions
      At line 907 in file ..\SRC\SYSTEM\LPC3200.INC
   Uses
      None
Comment: rm_init_entry unused
rm_irqhandler 7FFFFFD0

Symbol: rm_irqhandler
   Definitions
      At line 911 in file ..\SRC\SYSTEM\LPC3200.INC
   Uses
      None
Comment: rm_irqhandler unused
rm_irqhandler2 7FFFFFE0

Symbol: rm_irqhandler2
   Definitions
      At line 912 in file ..\SRC\SYSTEM\LPC3200.INC
   Uses
      None
Comment: rm_irqhandler2 unused
rm_prefetchabort_handler 7FFFFFB0

Symbol: rm_prefetchabort_handler
   Definitions
      At line 909 in file ..\SRC\SYSTEM\LPC3200.INC
   Uses
      None
Comment: rm_prefetchabort_handler unused
rm_undef_handler 7FFFFFA0

Symbol: rm_undef_handler



ARM Macro Assembler    Page 123 Alphabetic symbol ordering
Absolute symbols

   Definitions
      At line 908 in file ..\SRC\SYSTEM\LPC3200.INC
   Uses
      None
Comment: rm_undef_handler unused
802 symbols



ARM Macro Assembler    Page 1 Alphabetic symbol ordering
External symbols

FIQ_Exception 00000000

Symbol: FIQ_Exception
   Definitions
      At line 36 in file ..\SRC\SYSTEM\vicControl.s
   Uses
      At line 146 in file ..\SRC\SYSTEM\vicControl.s
Comment: FIQ_Exception used once
OSIntCtxSw 00000000

Symbol: OSIntCtxSw
   Definitions
      At line 37 in file ..\SRC\SYSTEM\vicControl.s
   Uses
      At line 360 in file ..\SRC\SYSTEM\vicControl.s
Comment: OSIntCtxSw used once
OSIntExit 00000000

Symbol: OSIntExit
   Definitions
      At line 38 in file ..\SRC\SYSTEM\vicControl.s
   Uses
      At line 342 in file ..\SRC\SYSTEM\vicControl.s
Comment: OSIntExit used once
OSIntNesting 00000000

Symbol: OSIntNesting
   Definitions
      At line 41 in file ..\SRC\SYSTEM\vicControl.s
   Uses
      At line 284 in file ..\SRC\SYSTEM\vicControl.s
Comment: OSIntNesting used once
OSTCBCur 00000000

Symbol: OSTCBCur
   Definitions
      At line 39 in file ..\SRC\SYSTEM\vicControl.s
   Uses
      At line 355 in file ..\SRC\SYSTEM\vicControl.s
Comment: OSTCBCur used once
OSTCBHighRdy 00000000

Symbol: OSTCBHighRdy
   Definitions
      At line 40 in file ..\SRC\SYSTEM\vicControl.s
   Uses
      At line 353 in file ..\SRC\SYSTEM\vicControl.s
Comment: OSTCBHighRdy used once
OsEnterSum 00000000

Symbol: OsEnterSum
   Definitions
      At line 42 in file ..\SRC\SYSTEM\vicControl.s
   Uses
      At line 338 in file ..\SRC\SYSTEM\vicControl.s
      At line 344 in file ..\SRC\SYSTEM\vicControl.s

7 symbols
1176 symbols in table
